

Microchip MPLAB XC8 Assembler V2.36 build 20220127204148 
                                                                                               Tue May  9 14:14:29 2023

Microchip MPLAB XC8 C Compiler v2.36 (Free license) build 20220127204148 Og1 
     1                           	processor	16F877A
     2                           	pagewidth 120
     3                           	opt	flic
     4                           	psect	idataBANK3,global,class=CODE,delta=2,noexec
     5                           	psect	strings,global,class=STRING,delta=2,noexec
     6                           	psect	stringtext,global,reloc=256,class=STRCODE,delta=2,noexec
     7                           	psect	cinit,global,class=CODE,merge=1,delta=2
     8                           	psect	bssCOMMON,global,class=COMMON,space=1,delta=1,noexec
     9                           	psect	bssBANK3,global,class=BANK3,space=1,delta=1,noexec
    10                           	psect	dataBANK3,global,class=BANK3,space=1,delta=1,noexec
    11                           	psect	inittext,global,class=CODE,delta=2
    12                           	psect	cstackBANK3,global,class=BANK3,space=1,delta=1,noexec
    13                           	psect	cstackBANK1,global,class=BANK1,space=1,delta=1,noexec
    14                           	psect	cstackCOMMON,global,class=COMMON,space=1,delta=1,noexec
    15                           	psect	cstackBANK0,global,class=BANK0,space=1,delta=1,noexec
    16                           	psect	maintext,global,class=CODE,split=1,delta=2
    17                           	psect	text1,local,class=CODE,merge=1,delta=2
    18                           	psect	text2,local,class=CODE,merge=1,delta=2
    19                           	psect	text3,local,class=CODE,merge=1,delta=2
    20                           	psect	text4,local,class=CODE,merge=1,delta=2
    21                           	psect	text5,local,class=CODE,merge=1,delta=2
    22                           	psect	text6,local,class=CODE,merge=1,delta=2
    23                           	psect	text7,local,class=CODE,merge=1,delta=2
    24                           	psect	text8,local,class=CODE,merge=1,delta=2
    25                           	psect	text9,local,class=CODE,merge=1,delta=2
    26                           	psect	text10,local,class=CODE,merge=1,delta=2
    27                           	psect	text11,local,class=CODE,merge=1,delta=2,group=1
    28                           	psect	text12,local,class=CODE,merge=1,delta=2
    29                           	psect	text13,local,class=CODE,merge=1,delta=2
    30                           	psect	text14,local,class=CODE,merge=1,delta=2
    31                           	psect	text15,local,class=CODE,merge=1,delta=2
    32                           	psect	text16,local,class=CODE,merge=1,delta=2
    33                           	psect	text17,local,class=CODE,merge=1,delta=2
    34                           	psect	text18,local,class=CODE,merge=1,delta=2
    35                           	psect	text19,local,class=CODE,merge=1,delta=2
    36                           	psect	text20,local,class=CODE,merge=1,delta=2
    37                           	psect	text21,local,class=CODE,merge=1,delta=2,group=1
    38                           	psect	text22,local,class=CODE,merge=1,delta=2,group=1
    39                           	psect	text23,local,class=CODE,merge=1,delta=2
    40                           	psect	text24,local,class=CODE,merge=1,delta=2
    41                           	psect	text25,local,class=CODE,merge=1,delta=2
    42                           	psect	text26,local,class=CODE,merge=1,delta=2
    43                           	psect	text27,local,class=CODE,merge=1,delta=2
    44                           	psect	text28,local,class=CODE,merge=1,delta=2
    45                           	psect	text29,local,class=CODE,merge=1,delta=2
    46                           	psect	text30,local,class=CODE,merge=1,delta=2
    47                           	psect	text31,local,class=CODE,merge=1,delta=2
    48                           	psect	text32,local,class=CODE,merge=1,delta=2
    49                           	psect	text33,local,class=CODE,merge=1,delta=2
    50                           	psect	text34,local,class=CODE,merge=1,delta=2
    51                           	psect	text35,local,class=CODE,merge=1,delta=2
    52                           	psect	text36,local,class=CODE,merge=1,delta=2,group=1
    53                           	psect	text37,local,class=CODE,merge=1,delta=2,group=1
    54                           	psect	text38,local,class=CODE,merge=1,delta=2,group=1
    55                           	psect	text39,local,class=CODE,merge=1,delta=2,group=1
    56                           	psect	text40,local,class=CODE,merge=1,delta=2,group=1
    57                           	psect	text41,local,class=CODE,merge=1,delta=2
    58                           	psect	intentry,global,class=CODE,delta=2
    59                           	psect	config,global,abs,ovrld,class=CONFIG,space=4,delta=2,noexec
    60                           	psect	maintext_split_1,global,class=CODE,split=1,delta=2
    61                           	dabs	1,0x7E,2
    62  0000                     
    63                           ; Version 2.20
    64                           ; Generated 12/02/2020 GMT
    65                           ; 
    66                           ; Copyright © 2020, Microchip Technology Inc. and its subsidiaries ("Microchip")
    67                           ; All rights reserved.
    68                           ; 
    69                           ; This software is developed by Microchip Technology Inc. and its subsidiaries ("Microch
      +                          ip").
    70                           ; 
    71                           ; Redistribution and use in source and binary forms, with or without modification, are
    72                           ; permitted provided that the following conditions are met:
    73                           ; 
    74                           ;     1. Redistributions of source code must retain the above copyright notice, this lis
      +                          t of
    75                           ;        conditions and the following disclaimer.
    76                           ; 
    77                           ;     2. Redistributions in binary form must reproduce the above copyright notice, this 
      +                          list
    78                           ;        of conditions and the following disclaimer in the documentation and/or other
    79                           ;        materials provided with the distribution.
    80                           ; 
    81                           ;     3. Microchip's name may not be used to endorse or promote products derived from th
      +                          is
    82                           ;        software without specific prior written permission.
    83                           ; 
    84                           ; THIS SOFTWARE IS PROVIDED BY MICROCHIP "AS IS" AND ANY EXPRESS OR IMPLIED WARRANTIES,
    85                           ; INCLUDING, BUT NOT LIMITED TO, THE IMPLIED WARRANTIES OF MERCHANTABILITY AND FITNESS F
      +                          OR
    86                           ; PURPOSE ARE DISCLAIMED.  IN NO EVENT SHALL MICROCHIP BE LIABLE FOR ANY DIRECT, INDIREC
      +                          T,
    87                           ; INCIDENTAL, SPECIAL, EXEMPLARY, OR CONSEQUENTIAL DAMAGES (INCLUDING BUT NOT LIMITED TO
    88                           ; PROCUREMENT OF SUBSTITUTE GOODS OR SERVICES; LOSS OF USE, DATA OR PROFITS; OR BUSINESS
    89                           ; INTERRUPTION) HOWSOEVER CAUSED AND ON ANY THEORY OF LIABILITY, WHETHER IN CONTRACT, ST
      +                          RICT
    90                           ; LIABILITY, OR TORT (INCLUDING NEGLIGENCE OR OTHERWISE) ARISING IN ANY WAY OUT OF THE U
      +                          SE OF
    91                           ; THIS SOFTWARE, EVEN IF ADVISED OF THE POSSIBILITY OF SUCH DAMAGE.
    92                           ; 
    93                           ; 
    94                           ; Code-generator required, PIC16F877A Definitions
    95                           ; 
    96                           ; SFR Addresses
    97  0000                     	;# 
    98  0001                     	;# 
    99  0002                     	;# 
   100  0003                     	;# 
   101  0004                     	;# 
   102  0005                     	;# 
   103  0006                     	;# 
   104  0007                     	;# 
   105  0008                     	;# 
   106  0009                     	;# 
   107  000A                     	;# 
   108  000B                     	;# 
   109  000C                     	;# 
   110  000D                     	;# 
   111  000E                     	;# 
   112  000E                     	;# 
   113  000F                     	;# 
   114  0010                     	;# 
   115  0011                     	;# 
   116  0012                     	;# 
   117  0013                     	;# 
   118  0014                     	;# 
   119  0015                     	;# 
   120  0015                     	;# 
   121  0016                     	;# 
   122  0017                     	;# 
   123  0018                     	;# 
   124  0019                     	;# 
   125  001A                     	;# 
   126  001B                     	;# 
   127  001B                     	;# 
   128  001C                     	;# 
   129  001D                     	;# 
   130  001E                     	;# 
   131  001F                     	;# 
   132  0081                     	;# 
   133  0085                     	;# 
   134  0086                     	;# 
   135  0087                     	;# 
   136  0088                     	;# 
   137  0089                     	;# 
   138  008C                     	;# 
   139  008D                     	;# 
   140  008E                     	;# 
   141  0091                     	;# 
   142  0092                     	;# 
   143  0093                     	;# 
   144  0094                     	;# 
   145  0098                     	;# 
   146  0099                     	;# 
   147  009C                     	;# 
   148  009D                     	;# 
   149  009E                     	;# 
   150  009F                     	;# 
   151  010C                     	;# 
   152  010D                     	;# 
   153  010E                     	;# 
   154  010F                     	;# 
   155  018C                     	;# 
   156  018D                     	;# 
   157  0000                     	;# 
   158  0001                     	;# 
   159  0002                     	;# 
   160  0003                     	;# 
   161  0004                     	;# 
   162  0005                     	;# 
   163  0006                     	;# 
   164  0007                     	;# 
   165  0008                     	;# 
   166  0009                     	;# 
   167  000A                     	;# 
   168  000B                     	;# 
   169  000C                     	;# 
   170  000D                     	;# 
   171  000E                     	;# 
   172  000E                     	;# 
   173  000F                     	;# 
   174  0010                     	;# 
   175  0011                     	;# 
   176  0012                     	;# 
   177  0013                     	;# 
   178  0014                     	;# 
   179  0015                     	;# 
   180  0015                     	;# 
   181  0016                     	;# 
   182  0017                     	;# 
   183  0018                     	;# 
   184  0019                     	;# 
   185  001A                     	;# 
   186  001B                     	;# 
   187  001B                     	;# 
   188  001C                     	;# 
   189  001D                     	;# 
   190  001E                     	;# 
   191  001F                     	;# 
   192  0081                     	;# 
   193  0085                     	;# 
   194  0086                     	;# 
   195  0087                     	;# 
   196  0088                     	;# 
   197  0089                     	;# 
   198  008C                     	;# 
   199  008D                     	;# 
   200  008E                     	;# 
   201  0091                     	;# 
   202  0092                     	;# 
   203  0093                     	;# 
   204  0094                     	;# 
   205  0098                     	;# 
   206  0099                     	;# 
   207  009C                     	;# 
   208  009D                     	;# 
   209  009E                     	;# 
   210  009F                     	;# 
   211  010C                     	;# 
   212  010D                     	;# 
   213  010E                     	;# 
   214  010F                     	;# 
   215  018C                     	;# 
   216  018D                     	;# 
   217  0000                     	;# 
   218  0001                     	;# 
   219  0002                     	;# 
   220  0003                     	;# 
   221  0004                     	;# 
   222  0005                     	;# 
   223  0006                     	;# 
   224  0007                     	;# 
   225  0008                     	;# 
   226  0009                     	;# 
   227  000A                     	;# 
   228  000B                     	;# 
   229  000C                     	;# 
   230  000D                     	;# 
   231  000E                     	;# 
   232  000E                     	;# 
   233  000F                     	;# 
   234  0010                     	;# 
   235  0011                     	;# 
   236  0012                     	;# 
   237  0013                     	;# 
   238  0014                     	;# 
   239  0015                     	;# 
   240  0015                     	;# 
   241  0016                     	;# 
   242  0017                     	;# 
   243  0018                     	;# 
   244  0019                     	;# 
   245  001A                     	;# 
   246  001B                     	;# 
   247  001B                     	;# 
   248  001C                     	;# 
   249  001D                     	;# 
   250  001E                     	;# 
   251  001F                     	;# 
   252  0081                     	;# 
   253  0085                     	;# 
   254  0086                     	;# 
   255  0087                     	;# 
   256  0088                     	;# 
   257  0089                     	;# 
   258  008C                     	;# 
   259  008D                     	;# 
   260  008E                     	;# 
   261  0091                     	;# 
   262  0092                     	;# 
   263  0093                     	;# 
   264  0094                     	;# 
   265  0098                     	;# 
   266  0099                     	;# 
   267  009C                     	;# 
   268  009D                     	;# 
   269  009E                     	;# 
   270  009F                     	;# 
   271  010C                     	;# 
   272  010D                     	;# 
   273  010E                     	;# 
   274  010F                     	;# 
   275  018C                     	;# 
   276  018D                     	;# 
   277  0000                     	;# 
   278  0001                     	;# 
   279  0002                     	;# 
   280  0003                     	;# 
   281  0004                     	;# 
   282  0005                     	;# 
   283  0006                     	;# 
   284  0007                     	;# 
   285  0008                     	;# 
   286  0009                     	;# 
   287  000A                     	;# 
   288  000B                     	;# 
   289  000C                     	;# 
   290  000D                     	;# 
   291  000E                     	;# 
   292  000E                     	;# 
   293  000F                     	;# 
   294  0010                     	;# 
   295  0011                     	;# 
   296  0012                     	;# 
   297  0013                     	;# 
   298  0014                     	;# 
   299  0015                     	;# 
   300  0015                     	;# 
   301  0016                     	;# 
   302  0017                     	;# 
   303  0018                     	;# 
   304  0019                     	;# 
   305  001A                     	;# 
   306  001B                     	;# 
   307  001B                     	;# 
   308  001C                     	;# 
   309  001D                     	;# 
   310  001E                     	;# 
   311  001F                     	;# 
   312  0081                     	;# 
   313  0085                     	;# 
   314  0086                     	;# 
   315  0087                     	;# 
   316  0088                     	;# 
   317  0089                     	;# 
   318  008C                     	;# 
   319  008D                     	;# 
   320  008E                     	;# 
   321  0091                     	;# 
   322  0092                     	;# 
   323  0093                     	;# 
   324  0094                     	;# 
   325  0098                     	;# 
   326  0099                     	;# 
   327  009C                     	;# 
   328  009D                     	;# 
   329  009E                     	;# 
   330  009F                     	;# 
   331  010C                     	;# 
   332  010D                     	;# 
   333  010E                     	;# 
   334  010F                     	;# 
   335  018C                     	;# 
   336  018D                     	;# 
   337  0000                     	;# 
   338  0001                     	;# 
   339  0002                     	;# 
   340  0003                     	;# 
   341  0004                     	;# 
   342  0005                     	;# 
   343  0006                     	;# 
   344  0007                     	;# 
   345  0008                     	;# 
   346  0009                     	;# 
   347  000A                     	;# 
   348  000B                     	;# 
   349  000C                     	;# 
   350  000D                     	;# 
   351  000E                     	;# 
   352  000E                     	;# 
   353  000F                     	;# 
   354  0010                     	;# 
   355  0011                     	;# 
   356  0012                     	;# 
   357  0013                     	;# 
   358  0014                     	;# 
   359  0015                     	;# 
   360  0015                     	;# 
   361  0016                     	;# 
   362  0017                     	;# 
   363  0018                     	;# 
   364  0019                     	;# 
   365  001A                     	;# 
   366  001B                     	;# 
   367  001B                     	;# 
   368  001C                     	;# 
   369  001D                     	;# 
   370  001E                     	;# 
   371  001F                     	;# 
   372  0081                     	;# 
   373  0085                     	;# 
   374  0086                     	;# 
   375  0087                     	;# 
   376  0088                     	;# 
   377  0089                     	;# 
   378  008C                     	;# 
   379  008D                     	;# 
   380  008E                     	;# 
   381  0091                     	;# 
   382  0092                     	;# 
   383  0093                     	;# 
   384  0094                     	;# 
   385  0098                     	;# 
   386  0099                     	;# 
   387  009C                     	;# 
   388  009D                     	;# 
   389  009E                     	;# 
   390  009F                     	;# 
   391  010C                     	;# 
   392  010D                     	;# 
   393  010E                     	;# 
   394  010F                     	;# 
   395  018C                     	;# 
   396  018D                     	;# 
   397  0000                     	;# 
   398  0001                     	;# 
   399  0002                     	;# 
   400  0003                     	;# 
   401  0004                     	;# 
   402  0005                     	;# 
   403  0006                     	;# 
   404  0007                     	;# 
   405  0008                     	;# 
   406  0009                     	;# 
   407  000A                     	;# 
   408  000B                     	;# 
   409  000C                     	;# 
   410  000D                     	;# 
   411  000E                     	;# 
   412  000E                     	;# 
   413  000F                     	;# 
   414  0010                     	;# 
   415  0011                     	;# 
   416  0012                     	;# 
   417  0013                     	;# 
   418  0014                     	;# 
   419  0015                     	;# 
   420  0015                     	;# 
   421  0016                     	;# 
   422  0017                     	;# 
   423  0018                     	;# 
   424  0019                     	;# 
   425  001A                     	;# 
   426  001B                     	;# 
   427  001B                     	;# 
   428  001C                     	;# 
   429  001D                     	;# 
   430  001E                     	;# 
   431  001F                     	;# 
   432  0081                     	;# 
   433  0085                     	;# 
   434  0086                     	;# 
   435  0087                     	;# 
   436  0088                     	;# 
   437  0089                     	;# 
   438  008C                     	;# 
   439  008D                     	;# 
   440  008E                     	;# 
   441  0091                     	;# 
   442  0092                     	;# 
   443  0093                     	;# 
   444  0094                     	;# 
   445  0098                     	;# 
   446  0099                     	;# 
   447  009C                     	;# 
   448  009D                     	;# 
   449  009E                     	;# 
   450  009F                     	;# 
   451  010C                     	;# 
   452  010D                     	;# 
   453  010E                     	;# 
   454  010F                     	;# 
   455  018C                     	;# 
   456  018D                     	;# 
   457  0000                     	;# 
   458  0001                     	;# 
   459  0002                     	;# 
   460  0003                     	;# 
   461  0004                     	;# 
   462  0005                     	;# 
   463  0006                     	;# 
   464  0007                     	;# 
   465  0008                     	;# 
   466  0009                     	;# 
   467  000A                     	;# 
   468  000B                     	;# 
   469  000C                     	;# 
   470  000D                     	;# 
   471  000E                     	;# 
   472  000E                     	;# 
   473  000F                     	;# 
   474  0010                     	;# 
   475  0011                     	;# 
   476  0012                     	;# 
   477  0013                     	;# 
   478  0014                     	;# 
   479  0015                     	;# 
   480  0015                     	;# 
   481  0016                     	;# 
   482  0017                     	;# 
   483  0018                     	;# 
   484  0019                     	;# 
   485  001A                     	;# 
   486  001B                     	;# 
   487  001B                     	;# 
   488  001C                     	;# 
   489  001D                     	;# 
   490  001E                     	;# 
   491  001F                     	;# 
   492  0081                     	;# 
   493  0085                     	;# 
   494  0086                     	;# 
   495  0087                     	;# 
   496  0088                     	;# 
   497  0089                     	;# 
   498  008C                     	;# 
   499  008D                     	;# 
   500  008E                     	;# 
   501  0091                     	;# 
   502  0092                     	;# 
   503  0093                     	;# 
   504  0094                     	;# 
   505  0098                     	;# 
   506  0099                     	;# 
   507  009C                     	;# 
   508  009D                     	;# 
   509  009E                     	;# 
   510  009F                     	;# 
   511  010C                     	;# 
   512  010D                     	;# 
   513  010E                     	;# 
   514  010F                     	;# 
   515  018C                     	;# 
   516  018D                     	;# 
   517  0000                     	;# 
   518  0001                     	;# 
   519  0002                     	;# 
   520  0003                     	;# 
   521  0004                     	;# 
   522  0005                     	;# 
   523  0006                     	;# 
   524  0007                     	;# 
   525  0008                     	;# 
   526  0009                     	;# 
   527  000A                     	;# 
   528  000B                     	;# 
   529  000C                     	;# 
   530  000D                     	;# 
   531  000E                     	;# 
   532  000E                     	;# 
   533  000F                     	;# 
   534  0010                     	;# 
   535  0011                     	;# 
   536  0012                     	;# 
   537  0013                     	;# 
   538  0014                     	;# 
   539  0015                     	;# 
   540  0015                     	;# 
   541  0016                     	;# 
   542  0017                     	;# 
   543  0018                     	;# 
   544  0019                     	;# 
   545  001A                     	;# 
   546  001B                     	;# 
   547  001B                     	;# 
   548  001C                     	;# 
   549  001D                     	;# 
   550  001E                     	;# 
   551  001F                     	;# 
   552  0081                     	;# 
   553  0085                     	;# 
   554  0086                     	;# 
   555  0087                     	;# 
   556  0088                     	;# 
   557  0089                     	;# 
   558  008C                     	;# 
   559  008D                     	;# 
   560  008E                     	;# 
   561  0091                     	;# 
   562  0092                     	;# 
   563  0093                     	;# 
   564  0094                     	;# 
   565  0098                     	;# 
   566  0099                     	;# 
   567  009C                     	;# 
   568  009D                     	;# 
   569  009E                     	;# 
   570  009F                     	;# 
   571  010C                     	;# 
   572  010D                     	;# 
   573  010E                     	;# 
   574  010F                     	;# 
   575  018C                     	;# 
   576  018D                     	;# 
   577  0000                     	;# 
   578  0001                     	;# 
   579  0002                     	;# 
   580  0003                     	;# 
   581  0004                     	;# 
   582  0005                     	;# 
   583  0006                     	;# 
   584  0007                     	;# 
   585  0008                     	;# 
   586  0009                     	;# 
   587  000A                     	;# 
   588  000B                     	;# 
   589  000C                     	;# 
   590  000D                     	;# 
   591  000E                     	;# 
   592  000E                     	;# 
   593  000F                     	;# 
   594  0010                     	;# 
   595  0011                     	;# 
   596  0012                     	;# 
   597  0013                     	;# 
   598  0014                     	;# 
   599  0015                     	;# 
   600  0015                     	;# 
   601  0016                     	;# 
   602  0017                     	;# 
   603  0018                     	;# 
   604  0019                     	;# 
   605  001A                     	;# 
   606  001B                     	;# 
   607  001B                     	;# 
   608  001C                     	;# 
   609  001D                     	;# 
   610  001E                     	;# 
   611  001F                     	;# 
   612  0081                     	;# 
   613  0085                     	;# 
   614  0086                     	;# 
   615  0087                     	;# 
   616  0088                     	;# 
   617  0089                     	;# 
   618  008C                     	;# 
   619  008D                     	;# 
   620  008E                     	;# 
   621  0091                     	;# 
   622  0092                     	;# 
   623  0093                     	;# 
   624  0094                     	;# 
   625  0098                     	;# 
   626  0099                     	;# 
   627  009C                     	;# 
   628  009D                     	;# 
   629  009E                     	;# 
   630  009F                     	;# 
   631  010C                     	;# 
   632  010D                     	;# 
   633  010E                     	;# 
   634  010F                     	;# 
   635  018C                     	;# 
   636  018D                     	;# 
   637  0000                     	;# 
   638  0001                     	;# 
   639  0002                     	;# 
   640  0003                     	;# 
   641  0004                     	;# 
   642  0005                     	;# 
   643  0006                     	;# 
   644  0007                     	;# 
   645  0008                     	;# 
   646  0009                     	;# 
   647  000A                     	;# 
   648  000B                     	;# 
   649  000C                     	;# 
   650  000D                     	;# 
   651  000E                     	;# 
   652  000E                     	;# 
   653  000F                     	;# 
   654  0010                     	;# 
   655  0011                     	;# 
   656  0012                     	;# 
   657  0013                     	;# 
   658  0014                     	;# 
   659  0015                     	;# 
   660  0015                     	;# 
   661  0016                     	;# 
   662  0017                     	;# 
   663  0018                     	;# 
   664  0019                     	;# 
   665  001A                     	;# 
   666  001B                     	;# 
   667  001B                     	;# 
   668  001C                     	;# 
   669  001D                     	;# 
   670  001E                     	;# 
   671  001F                     	;# 
   672  0081                     	;# 
   673  0085                     	;# 
   674  0086                     	;# 
   675  0087                     	;# 
   676  0088                     	;# 
   677  0089                     	;# 
   678  008C                     	;# 
   679  008D                     	;# 
   680  008E                     	;# 
   681  0091                     	;# 
   682  0092                     	;# 
   683  0093                     	;# 
   684  0094                     	;# 
   685  0098                     	;# 
   686  0099                     	;# 
   687  009C                     	;# 
   688  009D                     	;# 
   689  009E                     	;# 
   690  009F                     	;# 
   691  010C                     	;# 
   692  010D                     	;# 
   693  010E                     	;# 
   694  010F                     	;# 
   695  018C                     	;# 
   696  018D                     	;# 
   697  0000                     	;# 
   698  0001                     	;# 
   699  0002                     	;# 
   700  0003                     	;# 
   701  0004                     	;# 
   702  0005                     	;# 
   703  0006                     	;# 
   704  0007                     	;# 
   705  0008                     	;# 
   706  0009                     	;# 
   707  000A                     	;# 
   708  000B                     	;# 
   709  000C                     	;# 
   710  000D                     	;# 
   711  000E                     	;# 
   712  000E                     	;# 
   713  000F                     	;# 
   714  0010                     	;# 
   715  0011                     	;# 
   716  0012                     	;# 
   717  0013                     	;# 
   718  0014                     	;# 
   719  0015                     	;# 
   720  0015                     	;# 
   721  0016                     	;# 
   722  0017                     	;# 
   723  0018                     	;# 
   724  0019                     	;# 
   725  001A                     	;# 
   726  001B                     	;# 
   727  001B                     	;# 
   728  001C                     	;# 
   729  001D                     	;# 
   730  001E                     	;# 
   731  001F                     	;# 
   732  0081                     	;# 
   733  0085                     	;# 
   734  0086                     	;# 
   735  0087                     	;# 
   736  0088                     	;# 
   737  0089                     	;# 
   738  008C                     	;# 
   739  008D                     	;# 
   740  008E                     	;# 
   741  0091                     	;# 
   742  0092                     	;# 
   743  0093                     	;# 
   744  0094                     	;# 
   745  0098                     	;# 
   746  0099                     	;# 
   747  009C                     	;# 
   748  009D                     	;# 
   749  009E                     	;# 
   750  009F                     	;# 
   751  010C                     	;# 
   752  010D                     	;# 
   753  010E                     	;# 
   754  010F                     	;# 
   755  018C                     	;# 
   756  018D                     	;# 
   757                           
   758                           	psect	idataBANK3
   759  1EB5                     __pidataBANK3:
   760                           
   761                           ;initializer for main@F922
   762  1EB5  3410               	retlw	16
   763  1EB6  3400               	retlw	0
   764  1EB7  3420               	retlw	32
   765  1EB8  3400               	retlw	0
   766  1EB9  3430               	retlw	48
   767  1EBA  3400               	retlw	0
   768  1EBB  3440               	retlw	64
   769  1EBC  3400               	retlw	0
   770  1EBD  3450               	retlw	80
   771  1EBE  3400               	retlw	0
   772  1EBF  3460               	retlw	96
   773  1EC0  3400               	retlw	0
   774  1EC1  3470               	retlw	112
   775  1EC2  3400               	retlw	0
   776  1EC3  3480               	retlw	128
   777  1EC4  3400               	retlw	0
   778  1EC5  3490               	retlw	144
   779  1EC6  3400               	retlw	0
   780  1EC7  34A0               	retlw	160
   781  1EC8  3400               	retlw	0
   782                           
   783                           ;initializer for main@F919
   784  1EC9  34A1               	retlw	low (STR_2| (0+32768))
   785  1ECA  3491               	retlw	high (STR_2| (0+32768))
   786  1ECB  34A4               	retlw	low (STR_3| (0+32768))
   787  1ECC  3491               	retlw	high (STR_3| (0+32768))
   788  1ECD  34A7               	retlw	low (STR_4| (0+32768))
   789  1ECE  3491               	retlw	high (STR_4| (0+32768))
   790  1ECF  34AA               	retlw	low (STR_5| (0+32768))
   791  1ED0  3491               	retlw	high (STR_5| (0+32768))
   792  1ED1  34AD               	retlw	low (STR_6| (0+32768))
   793  1ED2  3491               	retlw	high (STR_6| (0+32768))
   794  1ED3  34B6               	retlw	low (STR_7| (0+32768))
   795  1ED4  3491               	retlw	high (STR_7| (0+32768))
   796  1ED5  34B0               	retlw	low (STR_8| (0+32768))
   797  1ED6  3491               	retlw	high (STR_8| (0+32768))
   798                           
   799                           ;initializer for read_matrix_keypad@once
   800  1ED7  3401               	retlw	1
   801  0019                     _TXREG	set	25
   802  001A                     _RCREG	set	26
   803  0001                     _TMR0	set	1
   804  0013                     _SSPBUF	set	19
   805  0008                     _PORTD	set	8
   806  001E                     _ADRESH	set	30
   807  001F                     _ADCON0	set	31
   808  0064                     _TXIF	set	100
   809  0065                     _RCIF	set	101
   810  00C4                     _CREN	set	196
   811  00C7                     _SPEN	set	199
   812  005D                     _TMR0IE	set	93
   813  0032                     _RB2	set	50
   814  0031                     _RB1	set	49
   815  0030                     _RB0	set	48
   816  0040                     _RD0	set	64
   817  0041                     _RD1	set	65
   818  0042                     _RD2	set	66
   819  0043                     _RD3	set	67
   820  005F                     _GIE	set	95
   821  005A                     _TMR0IF	set	90
   822  00A5                     _SSPEN	set	165
   823  00A3                     _SSPM3	set	163
   824  0049                     _RE1	set	73
   825  004A                     _RE2	set	74
   826  00FA                     _nDONE	set	250
   827  00FA                     _GO	set	250
   828  00F8                     _ADON	set	248
   829  0099                     _SPBRG	set	153
   830  0086                     _TRISB	set	134
   831  0091                     _SSPCON2	set	145
   832  0093                     _SSPADD	set	147
   833  0088                     _TRISD	set	136
   834  009E                     _ADRESL	set	158
   835  040B                     _PSA	set	1035
   836  040D                     _T0CS	set	1037
   837  040F                     _nRBPU	set	1039
   838  048E                     _ACKSTAT	set	1166
   839  048C                     _ACKEN	set	1164
   840  048D                     _ACKDT	set	1165
   841  048B                     _RCEN	set	1163
   842  048A                     _PEN	set	1162
   843  0488                     _SEN	set	1160
   844  04A2                     _R_nW	set	1186
   845  0449                     _TRISE1	set	1097
   846  044A                     _TRISE2	set	1098
   847  04FF                     _ADFM	set	1279
   848                           
   849                           	psect	strings
   850  1800                     __pstrings:
   851  1800                     stringtab:
   852  1800                     __stringtab:
   853                           
   854                           ;	String table - string pointers are 2 bytes each
   855  1800  1BFF               	btfsc	btemp+1,7
   856  1801  280A               	ljmp	stringcode
   857  1802  1383               	bcf	3,7
   858  1803  187F               	btfsc	btemp+1,0
   859  1804  1783               	bsf	3,7
   860  1805  0800               	movf	0,w
   861  1806  0A84               	incf	4,f
   862  1807  1903               	skipnz
   863  1808  0AFF               	incf	btemp+1,f
   864  1809  0008               	return
   865  180A                     stringcode:
   866  180A  087F               	movf	btemp+1,w
   867  180B  397F               	andlw	127
   868  180C  008A               	movwf	10
   869  180D  0804               	movf	4,w
   870  180E  0A84               	incf	4,f
   871  180F  1903               	skipnz
   872  1810  0AFF               	incf	btemp+1,f
   873  1811  0082               	movwf	2
   874  1812                     __stringbase:
   875  1812                     __end_of__stringtab:
   876                           
   877                           	psect	stringtext
   878  1000                     __pstringtext:
   879  1000                     STR_58:
   880  1000  3420               	retlw	32	;' '
   881  1001  3420               	retlw	32	;' '
   882  1002  3420               	retlw	32	;' '
   883  1003  3420               	retlw	32	;' '
   884  1004  3420               	retlw	32	;' '
   885  1005  3454               	retlw	84	;'T'
   886  1006  3469               	retlw	105	;'i'
   887  1007  346D               	retlw	109	;'m'
   888  1008  3465               	retlw	101	;'e'
   889  1009  3420               	retlw	32	;' '
   890  100A  3420               	retlw	32	;' '
   891  100B  3420               	retlw	32	;' '
   892  100C  3420               	retlw	32	;' '
   893  100D  3420               	retlw	32	;' '
   894  100E  3447               	retlw	71	;'G'
   895  100F  3420               	retlw	32	;' '
   896  1010  3420               	retlw	32	;' '
   897  1011  3453               	retlw	83	;'S'
   898  1012  3450               	retlw	80	;'P'
   899  1013  340A               	retlw	10
   900  1014  340D               	retlw	13
   901  1015  3400               	retlw	0
   902  1016                     STR_40:
   903  1016  3420               	retlw	32	;' '
   904  1017  3420               	retlw	32	;' '
   905  1018  3420               	retlw	32	;' '
   906  1019  3420               	retlw	32	;' '
   907  101A  3420               	retlw	32	;' '
   908  101B  3445               	retlw	69	;'E'
   909  101C  346D               	retlw	109	;'m'
   910  101D  3470               	retlw	112	;'p'
   911  101E  3474               	retlw	116	;'t'
   912  101F  3479               	retlw	121	;'y'
   913  1020  3420               	retlw	32	;' '
   914  1021  344C               	retlw	76	;'L'
   915  1022  346F               	retlw	111	;'o'
   916  1023  3467               	retlw	103	;'g'
   917  1024  3420               	retlw	32	;' '
   918  1025  3420               	retlw	32	;' '
   919  1026  3420               	retlw	32	;' '
   920  1027  3400               	retlw	0
   921  1028                     STR_1:
   922  1028  3420               	retlw	32	;' '
   923  1029  3420               	retlw	32	;' '
   924  102A  3420               	retlw	32	;' '
   925  102B  3420               	retlw	32	;' '
   926  102C  3420               	retlw	32	;' '
   927  102D  3420               	retlw	32	;' '
   928  102E  3420               	retlw	32	;' '
   929  102F  3420               	retlw	32	;' '
   930  1030  3420               	retlw	32	;' '
   931  1031  3420               	retlw	32	;' '
   932  1032  3420               	retlw	32	;' '
   933  1033  3420               	retlw	32	;' '
   934  1034  3420               	retlw	32	;' '
   935  1035  3420               	retlw	32	;' '
   936  1036  3420               	retlw	32	;' '
   937  1037  3420               	retlw	32	;' '
   938  1038  3400               	retlw	0
   939  1039                     STR_20:
   940  1039  3420               	retlw	32	;' '
   941  103A  3420               	retlw	32	;' '
   942  103B  3420               	retlw	32	;' '
   943  103C  344D               	retlw	77	;'M'
   944  103D  3445               	retlw	69	;'E'
   945  103E  344E               	retlw	78	;'N'
   946  103F  3455               	retlw	85	;'U'
   947  1040  3420               	retlw	32	;' '
   948  1041  3420               	retlw	32	;' '
   949  1042  3420               	retlw	32	;' '
   950  1043  3420               	retlw	32	;' '
   951  1044  3420               	retlw	32	;' '
   952  1045  3420               	retlw	32	;' '
   953  1046  3420               	retlw	32	;' '
   954  1047  3420               	retlw	32	;' '
   955  1048  3420               	retlw	32	;' '
   956  1049  3400               	retlw	0
   957  104A                     STR_24:
   958  104A  3420               	retlw	32	;' '
   959  104B  3420               	retlw	32	;' '
   960  104C  3420               	retlw	32	;' '
   961  104D  3453               	retlw	83	;'S'
   962  104E  3465               	retlw	101	;'e'
   963  104F  3474               	retlw	116	;'t'
   964  1050  3420               	retlw	32	;' '
   965  1051  3474               	retlw	116	;'t'
   966  1052  3469               	retlw	105	;'i'
   967  1053  346D               	retlw	109	;'m'
   968  1054  3465               	retlw	101	;'e'
   969  1055  3420               	retlw	32	;' '
   970  1056  3420               	retlw	32	;' '
   971  1057  3420               	retlw	32	;' '
   972  1058  3420               	retlw	32	;' '
   973  1059  3420               	retlw	32	;' '
   974  105A  3400               	retlw	0
   975  105B                     STR_26:
   976  105B  342D               	retlw	45	;'-'
   977  105C  343E               	retlw	62	;'>'
   978  105D  3420               	retlw	32	;' '
   979  105E  3453               	retlw	83	;'S'
   980  105F  3465               	retlw	101	;'e'
   981  1060  3474               	retlw	116	;'t'
   982  1061  3420               	retlw	32	;' '
   983  1062  3474               	retlw	116	;'t'
   984  1063  3469               	retlw	105	;'i'
   985  1064  346D               	retlw	109	;'m'
   986  1065  3465               	retlw	101	;'e'
   987  1066  3420               	retlw	32	;' '
   988  1067  3420               	retlw	32	;' '
   989  1068  3420               	retlw	32	;' '
   990  1069  3420               	retlw	32	;' '
   991  106A  3420               	retlw	32	;' '
   992  106B  3400               	retlw	0
   993  106C                     STR_21:
   994  106C  3420               	retlw	32	;' '
   995  106D  3420               	retlw	32	;' '
   996  106E  3420               	retlw	32	;' '
   997  106F  3456               	retlw	86	;'V'
   998  1070  3469               	retlw	105	;'i'
   999  1071  3465               	retlw	101	;'e'
  1000  1072  3477               	retlw	119	;'w'
  1001  1073  3420               	retlw	32	;' '
  1002  1074  346C               	retlw	108	;'l'
  1003  1075  346F               	retlw	111	;'o'
  1004  1076  3467               	retlw	103	;'g'
  1005  1077  3420               	retlw	32	;' '
  1006  1078  3420               	retlw	32	;' '
  1007  1079  3420               	retlw	32	;' '
  1008  107A  3420               	retlw	32	;' '
  1009  107B  3420               	retlw	32	;' '
  1010  107C  3400               	retlw	0
  1011  107D                     STR_23:
  1012  107D  342D               	retlw	45	;'-'
  1013  107E  343E               	retlw	62	;'>'
  1014  107F  3420               	retlw	32	;' '
  1015  1080  3456               	retlw	86	;'V'
  1016  1081  3469               	retlw	105	;'i'
  1017  1082  3465               	retlw	101	;'e'
  1018  1083  3477               	retlw	119	;'w'
  1019  1084  3420               	retlw	32	;' '
  1020  1085  346C               	retlw	108	;'l'
  1021  1086  346F               	retlw	111	;'o'
  1022  1087  3467               	retlw	103	;'g'
  1023  1088  3420               	retlw	32	;' '
  1024  1089  3420               	retlw	32	;' '
  1025  108A  3420               	retlw	32	;' '
  1026  108B  3420               	retlw	32	;' '
  1027  108C  3420               	retlw	32	;' '
  1028  108D  3400               	retlw	0
  1029  108E                     STR_32:
  1030  108E  3420               	retlw	32	;' '
  1031  108F  3420               	retlw	32	;' '
  1032  1090  3420               	retlw	32	;' '
  1033  1091  3443               	retlw	67	;'C'
  1034  1092  346C               	retlw	108	;'l'
  1035  1093  3465               	retlw	101	;'e'
  1036  1094  3461               	retlw	97	;'a'
  1037  1095  3472               	retlw	114	;'r'
  1038  1096  3420               	retlw	32	;' '
  1039  1097  346C               	retlw	108	;'l'
  1040  1098  346F               	retlw	111	;'o'
  1041  1099  3467               	retlw	103	;'g'
  1042  109A  3420               	retlw	32	;' '
  1043  109B  3420               	retlw	32	;' '
  1044  109C  3420               	retlw	32	;' '
  1045  109D  3420               	retlw	32	;' '
  1046  109E  3400               	retlw	0
  1047  109F                     STR_34:
  1048  109F  342D               	retlw	45	;'-'
  1049  10A0  343E               	retlw	62	;'>'
  1050  10A1  3420               	retlw	32	;' '
  1051  10A2  3443               	retlw	67	;'C'
  1052  10A3  346C               	retlw	108	;'l'
  1053  10A4  3465               	retlw	101	;'e'
  1054  10A5  3461               	retlw	97	;'a'
  1055  10A6  3472               	retlw	114	;'r'
  1056  10A7  3420               	retlw	32	;' '
  1057  10A8  346C               	retlw	108	;'l'
  1058  10A9  346F               	retlw	111	;'o'
  1059  10AA  3467               	retlw	103	;'g'
  1060  10AB  3420               	retlw	32	;' '
  1061  10AC  3420               	retlw	32	;' '
  1062  10AD  3420               	retlw	32	;' '
  1063  10AE  3420               	retlw	32	;' '
  1064  10AF  3400               	retlw	0
  1065  10B0                     STR_56:
  1066  10B0  3420               	retlw	32	;' '
  1067  10B1  3420               	retlw	32	;' '
  1068  10B2  346C               	retlw	108	;'l'
  1069  10B3  346F               	retlw	111	;'o'
  1070  10B4  3467               	retlw	103	;'g'
  1071  10B5  3420               	retlw	32	;' '
  1072  10B6  3463               	retlw	99	;'c'
  1073  10B7  346C               	retlw	108	;'l'
  1074  10B8  3465               	retlw	101	;'e'
  1075  10B9  3461               	retlw	97	;'a'
  1076  10BA  3472               	retlw	114	;'r'
  1077  10BB  3465               	retlw	101	;'e'
  1078  10BC  3464               	retlw	100	;'d'
  1079  10BD  3420               	retlw	32	;' '
  1080  10BE  3420               	retlw	32	;' '
  1081  10BF  3420               	retlw	32	;' '
  1082  10C0  3400               	retlw	0
  1083  10C1                     STR_53:
  1084  10C1  3420               	retlw	32	;' '
  1085  10C2  3420               	retlw	32	;' '
  1086  10C3  3420               	retlw	32	;' '
  1087  10C4  3453               	retlw	83	;'S'
  1088  10C5  3475               	retlw	117	;'u'
  1089  10C6  3463               	retlw	99	;'c'
  1090  10C7  3463               	retlw	99	;'c'
  1091  10C8  3465               	retlw	101	;'e'
  1092  10C9  3473               	retlw	115	;'s'
  1093  10CA  3473               	retlw	115	;'s'
  1094  10CB  3466               	retlw	102	;'f'
  1095  10CC  3475               	retlw	117	;'u'
  1096  10CD  346C               	retlw	108	;'l'
  1097  10CE  3420               	retlw	32	;' '
  1098  10CF  3420               	retlw	32	;' '
  1099  10D0  3420               	retlw	32	;' '
  1100  10D1  3400               	retlw	0
  1101  10D2                     STR_52:
  1102  10D2  3420               	retlw	32	;' '
  1103  10D3  3420               	retlw	32	;' '
  1104  10D4  344E               	retlw	78	;'N'
  1105  10D5  3465               	retlw	101	;'e'
  1106  10D6  3477               	retlw	119	;'w'
  1107  10D7  3420               	retlw	32	;' '
  1108  10D8  3450               	retlw	80	;'P'
  1109  10D9  3461               	retlw	97	;'a'
  1110  10DA  3473               	retlw	115	;'s'
  1111  10DB  3473               	retlw	115	;'s'
  1112  10DC  3477               	retlw	119	;'w'
  1113  10DD  346F               	retlw	111	;'o'
  1114  10DE  3472               	retlw	114	;'r'
  1115  10DF  3464               	retlw	100	;'d'
  1116  10E0  3420               	retlw	32	;' '
  1117  10E1  3420               	retlw	32	;' '
  1118  10E2  3400               	retlw	0
  1119  10E3                     STR_57:
  1120  10E3  3420               	retlw	32	;' '
  1121  10E4  3420               	retlw	32	;' '
  1122  10E5  3473               	retlw	115	;'s'
  1123  10E6  3475               	retlw	117	;'u'
  1124  10E7  3463               	retlw	99	;'c'
  1125  10E8  3463               	retlw	99	;'c'
  1126  10E9  3465               	retlw	101	;'e'
  1127  10EA  3473               	retlw	115	;'s'
  1128  10EB  3473               	retlw	115	;'s'
  1129  10EC  3466               	retlw	102	;'f'
  1130  10ED  3475               	retlw	117	;'u'
  1131  10EE  346C               	retlw	108	;'l'
  1132  10EF  346C               	retlw	108	;'l'
  1133  10F0  3479               	retlw	121	;'y'
  1134  10F1  3420               	retlw	32	;' '
  1135  10F2  3420               	retlw	32	;' '
  1136  10F3  3400               	retlw	0
  1137  10F4                     STR_16:
  1138  10F4  3420               	retlw	32	;' '
  1139  10F5  3457               	retlw	87	;'W'
  1140  10F6  3472               	retlw	114	;'r'
  1141  10F7  346F               	retlw	111	;'o'
  1142  10F8  346E               	retlw	110	;'n'
  1143  10F9  3467               	retlw	103	;'g'
  1144  10FA  3420               	retlw	32	;' '
  1145  10FB  3450               	retlw	80	;'P'
  1146  10FC  3461               	retlw	97	;'a'
  1147  10FD  3473               	retlw	115	;'s'
  1148  10FE  3473               	retlw	115	;'s'
  1149  10FF  3477               	retlw	119	;'w'
  1150  1100  346F               	retlw	111	;'o'
  1151  1101  3472               	retlw	114	;'r'
  1152  1102  3464               	retlw	100	;'d'
  1153  1103  3420               	retlw	32	;' '
  1154  1104  3400               	retlw	0
  1155  1105                     STR_15:
  1156  1105  3420               	retlw	32	;' '
  1157  1106  3445               	retlw	69	;'E'
  1158  1107  346E               	retlw	110	;'n'
  1159  1108  3474               	retlw	116	;'t'
  1160  1109  3465               	retlw	101	;'e'
  1161  110A  3472               	retlw	114	;'r'
  1162  110B  3420               	retlw	32	;' '
  1163  110C  3450               	retlw	80	;'P'
  1164  110D  3461               	retlw	97	;'a'
  1165  110E  3473               	retlw	115	;'s'
  1166  110F  3473               	retlw	115	;'s'
  1167  1110  3477               	retlw	119	;'w'
  1168  1111  346F               	retlw	111	;'o'
  1169  1112  3472               	retlw	114	;'r'
  1170  1113  3464               	retlw	100	;'d'
  1171  1114  3420               	retlw	32	;' '
  1172  1115  3400               	retlw	0
  1173  1116                     STR_33:
  1174  1116  3420               	retlw	32	;' '
  1175  1117  3420               	retlw	32	;' '
  1176  1118  3420               	retlw	32	;' '
  1177  1119  3464               	retlw	100	;'d'
  1178  111A  346F               	retlw	111	;'o'
  1179  111B  3477               	retlw	119	;'w'
  1180  111C  346E               	retlw	110	;'n'
  1181  111D  346C               	retlw	108	;'l'
  1182  111E  346F               	retlw	111	;'o'
  1183  111F  3461               	retlw	97	;'a'
  1184  1120  3464               	retlw	100	;'d'
  1185  1121  3420               	retlw	32	;' '
  1186  1122  346C               	retlw	108	;'l'
  1187  1123  346F               	retlw	111	;'o'
  1188  1124  3467               	retlw	103	;'g'
  1189  1125  3420               	retlw	32	;' '
  1190  1126  3400               	retlw	0
  1191  1127                     STR_39:
  1192  1127  342D               	retlw	45	;'-'
  1193  1128  343E               	retlw	62	;'>'
  1194  1129  3420               	retlw	32	;' '
  1195  112A  3464               	retlw	100	;'d'
  1196  112B  346F               	retlw	111	;'o'
  1197  112C  3477               	retlw	119	;'w'
  1198  112D  346E               	retlw	110	;'n'
  1199  112E  346C               	retlw	108	;'l'
  1200  112F  346F               	retlw	111	;'o'
  1201  1130  3461               	retlw	97	;'a'
  1202  1131  3464               	retlw	100	;'d'
  1203  1132  3420               	retlw	32	;' '
  1204  1133  346C               	retlw	108	;'l'
  1205  1134  346F               	retlw	111	;'o'
  1206  1135  3467               	retlw	103	;'g'
  1207  1136  3420               	retlw	32	;' '
  1208  1137  3400               	retlw	0
  1209  1138                     STR_9:
  1210  1138  3454               	retlw	84	;'T'
  1211  1139  3469               	retlw	105	;'i'
  1212  113A  346D               	retlw	109	;'m'
  1213  113B  3465               	retlw	101	;'e'
  1214  113C  3420               	retlw	32	;' '
  1215  113D  3420               	retlw	32	;' '
  1216  113E  3420               	retlw	32	;' '
  1217  113F  3420               	retlw	32	;' '
  1218  1140  3420               	retlw	32	;' '
  1219  1141  3420               	retlw	32	;' '
  1220  1142  3447               	retlw	71	;'G'
  1221  1143  3420               	retlw	32	;' '
  1222  1144  3420               	retlw	32	;' '
  1223  1145  3420               	retlw	32	;' '
  1224  1146  3453               	retlw	83	;'S'
  1225  1147  3450               	retlw	80	;'P'
  1226  1148  3400               	retlw	0
  1227  1149                     STR_43:
  1228  1149  3420               	retlw	32	;' '
  1229  114A  3420               	retlw	32	;' '
  1230  114B  3454               	retlw	84	;'T'
  1231  114C  3469               	retlw	105	;'i'
  1232  114D  346D               	retlw	109	;'m'
  1233  114E  3465               	retlw	101	;'e'
  1234  114F  3420               	retlw	32	;' '
  1235  1150  3420               	retlw	32	;' '
  1236  1151  3420               	retlw	32	;' '
  1237  1152  3420               	retlw	32	;' '
  1238  1153  3420               	retlw	32	;' '
  1239  1154  3447               	retlw	71	;'G'
  1240  1155  3420               	retlw	32	;' '
  1241  1156  3420               	retlw	32	;' '
  1242  1157  3453               	retlw	83	;'S'
  1243  1158  3450               	retlw	80	;'P'
  1244  1159  3400               	retlw	0
  1245  115A                     STR_49:
  1246  115A  3445               	retlw	69	;'E'
  1247  115B  346E               	retlw	110	;'n'
  1248  115C  3474               	retlw	116	;'t'
  1249  115D  3472               	retlw	114	;'r'
  1250  115E  3420               	retlw	32	;' '
  1251  115F  3470               	retlw	112	;'p'
  1252  1160  3472               	retlw	114	;'r'
  1253  1161  3465               	retlw	101	;'e'
  1254  1162  3476               	retlw	118	;'v'
  1255  1163  3420               	retlw	32	;' '
  1256  1164  3450               	retlw	80	;'P'
  1257  1165  3461               	retlw	97	;'a'
  1258  1166  3473               	retlw	115	;'s'
  1259  1167  3473               	retlw	115	;'s'
  1260  1168  3477               	retlw	119	;'w'
  1261  1169  3464               	retlw	100	;'d'
  1262  116A  3400               	retlw	0
  1263  116B                     STR_50:
  1264  116B  3445               	retlw	69	;'E'
  1265  116C  346E               	retlw	110	;'n'
  1266  116D  3474               	retlw	116	;'t'
  1267  116E  3465               	retlw	101	;'e'
  1268  116F  3472               	retlw	114	;'r'
  1269  1170  3420               	retlw	32	;' '
  1270  1171  346E               	retlw	110	;'n'
  1271  1172  3465               	retlw	101	;'e'
  1272  1173  3477               	retlw	119	;'w'
  1273  1174  3420               	retlw	32	;' '
  1274  1175  3450               	retlw	80	;'P'
  1275  1176  3461               	retlw	97	;'a'
  1276  1177  3473               	retlw	115	;'s'
  1277  1178  3473               	retlw	115	;'s'
  1278  1179  3477               	retlw	119	;'w'
  1279  117A  3464               	retlw	100	;'d'
  1280  117B  3400               	retlw	0
  1281  117C                     STR_25:
  1282  117C  3420               	retlw	32	;' '
  1283  117D  3420               	retlw	32	;' '
  1284  117E  3420               	retlw	32	;' '
  1285  117F  3443               	retlw	67	;'C'
  1286  1180  3468               	retlw	104	;'h'
  1287  1181  3461               	retlw	97	;'a'
  1288  1182  346E               	retlw	110	;'n'
  1289  1183  3467               	retlw	103	;'g'
  1290  1184  3465               	retlw	101	;'e'
  1291  1185  3420               	retlw	32	;' '
  1292  1186  3470               	retlw	112	;'p'
  1293  1187  3461               	retlw	97	;'a'
  1294  1188  3473               	retlw	115	;'s'
  1295  1189  3473               	retlw	115	;'s'
  1296  118A  3477               	retlw	119	;'w'
  1297  118B  3464               	retlw	100	;'d'
  1298  118C  3400               	retlw	0
  1299  118D                     STR_31:
  1300  118D  342D               	retlw	45	;'-'
  1301  118E  343E               	retlw	62	;'>'
  1302  118F  3420               	retlw	32	;' '
  1303  1190  3443               	retlw	67	;'C'
  1304  1191  3468               	retlw	104	;'h'
  1305  1192  3461               	retlw	97	;'a'
  1306  1193  346E               	retlw	110	;'n'
  1307  1194  3467               	retlw	103	;'g'
  1308  1195  3465               	retlw	101	;'e'
  1309  1196  3420               	retlw	32	;' '
  1310  1197  3470               	retlw	112	;'p'
  1311  1198  3461               	retlw	97	;'a'
  1312  1199  3473               	retlw	115	;'s'
  1313  119A  3473               	retlw	115	;'s'
  1314  119B  3477               	retlw	119	;'w'
  1315  119C  3464               	retlw	100	;'d'
  1316  119D  3400               	retlw	0
  1317  119E                     STR_13:
  1318  119E  3443               	retlw	67	;'C'
  1319  119F  3420               	retlw	32	;' '
  1320  11A0  3400               	retlw	0
  1321  11A1                     STR_2:
  1322  11A1  3447               	retlw	71	;'G'
  1323  11A2  3431               	retlw	49	;'1'
  1324  11A3  3400               	retlw	0
  1325  11A4                     STR_3:
  1326  11A4  3447               	retlw	71	;'G'
  1327  11A5  3432               	retlw	50	;'2'
  1328  11A6  3400               	retlw	0
  1329  11A7                     STR_4:
  1330  11A7  3447               	retlw	71	;'G'
  1331  11A8  3433               	retlw	51	;'3'
  1332  11A9  3400               	retlw	0
  1333  11AA                     STR_5:
  1334  11AA  3447               	retlw	71	;'G'
  1335  11AB  3434               	retlw	52	;'4'
  1336  11AC  3400               	retlw	0
  1337  11AD                     STR_6:
  1338  11AD  3447               	retlw	71	;'G'
  1339  11AE  3435               	retlw	53	;'5'
  1340  11AF  3400               	retlw	0
  1341  11B0                     STR_8:
  1342  11B0  3447               	retlw	71	;'G'
  1343  11B1  344E               	retlw	78	;'N'
  1344  11B2  3400               	retlw	0
  1345  11B3                     STR_12:
  1346  11B3  344F               	retlw	79	;'O'
  1347  11B4  344E               	retlw	78	;'N'
  1348  11B5  3400               	retlw	0
  1349  11B6                     STR_7:
  1350  11B6  3447               	retlw	71	;'G'
  1351  11B7  3452               	retlw	82	;'R'
  1352  11B8  3400               	retlw	0
  1353  11B9                     STR_14:
  1354  11B9  3443               	retlw	67	;'C'
  1355  11BA  345F               	retlw	95	;'_'
  1356  11BB  3400               	retlw	0
  1357  11BC                     STR_46:
  1358  11BC  345F               	retlw	95	;'_'
  1359  11BD  345F               	retlw	95	;'_'
  1360  11BE  3400               	retlw	0
  1361  1028                     
  1362                           	psect	cinit
  1363  000F                     start_initialization:	
  1364                           ; #config settings
  1365                           
  1366  000F                     __initialization:
  1367                           
  1368                           ; Initialize objects allocated to BANK3
  1369  000F  1783               	bsf	3,7	;select IRP bank2
  1370  0010  30E1               	movlw	low (__pdataBANK3+35)
  1371  0011  00FD               	movwf	btemp+-1
  1372  0012  301E               	movlw	high __pidataBANK3
  1373  0013  00FE               	movwf	btemp
  1374  0014  30B5               	movlw	low __pidataBANK3
  1375  0015  00FF               	movwf	btemp+1
  1376  0016  30BE               	movlw	low __pdataBANK3
  1377  0017  0084               	movwf	4
  1378  0018  160A  158A  25ED  120A  118A  	fcall	init_ram0
  1379                           
  1380                           ; Clear objects allocated to BANK3
  1381  001D  1683               	bsf	3,5	;RP0=1, select bank3
  1382  001E  1703               	bsf	3,6	;RP1=1, select bank3
  1383  001F  01E1               	clrf	__pbssBANK3& (0+127)
  1384  0020  01E2               	clrf	(__pbssBANK3+1)& (0+127)
  1385  0021  01E3               	clrf	(__pbssBANK3+2)& (0+127)
  1386  0022  01E4               	clrf	(__pbssBANK3+3)& (0+127)
  1387  0023  01E5               	clrf	(__pbssBANK3+4)& (0+127)
  1388  0024  01E6               	clrf	(__pbssBANK3+5)& (0+127)
  1389  0025  01E7               	clrf	(__pbssBANK3+6)& (0+127)
  1390  0026  01E8               	clrf	(__pbssBANK3+7)& (0+127)
  1391  0027  01E9               	clrf	(__pbssBANK3+8)& (0+127)
  1392  0028  01EA               	clrf	(__pbssBANK3+9)& (0+127)
  1393  0029  01EB               	clrf	(__pbssBANK3+10)& (0+127)
  1394  002A  01EC               	clrf	(__pbssBANK3+11)& (0+127)
  1395                           
  1396                           ; Clear objects allocated to COMMON
  1397  002B  01FA               	clrf	__pbssCOMMON& (0+127)
  1398  002C  01FB               	clrf	(__pbssCOMMON+1)& (0+127)
  1399  002D                     end_of_initialization:	
  1400                           ;End of C runtime variable initialization code
  1401                           
  1402  002D                     __end_of__initialization:
  1403  002D  0183               	clrf	3
  1404  002E  120A  118A  2B92   	ljmp	_main	;jump to C main() function
  1405                           
  1406                           	psect	bssCOMMON
  1407  007A                     __pbssCOMMON:
  1408  007A                     _time_count_isr:
  1409  007A                     	ds	2
  1410                           
  1411                           	psect	bssBANK3
  1412  01E1                     __pbssBANK3:
  1413  01E1                     _time:
  1414  01E1                     	ds	9
  1415  01EA                     _buff:
  1416  01EA                     	ds	3
  1417                           
  1418                           	psect	dataBANK3
  1419  01BE                     __pdataBANK3:
  1420  01BE                     main@F922:
  1421  01BE                     	ds	20
  1422  01D2                     main@F919:
  1423  01D2                     	ds	14
  1424  01E0                     read_matrix_keypad@once:
  1425  01E0                     	ds	1
  1426                           
  1427                           	psect	inittext
  1428  1DE9                     init_fetch0:	
  1429                           ;	Called with low address in FSR and high address in W
  1430                           
  1431  1DE9  087E               	movf	btemp,w
  1432  1DEA  008A               	movwf	10
  1433  1DEB  087F               	movf	btemp+1,w
  1434  1DEC  0082               	movwf	2
  1435  1DED                     init_ram0:	
  1436                           ;Called with:
  1437                           ;	high address of idata address in btemp 
  1438                           ;	low address of idata address in btemp+1 
  1439                           ;	low address of data in FSR
  1440                           ;	high address + 1 of data in btemp-1
  1441                           
  1442  1DED  160A  158A  25E9  160A  158A  	fcall	init_fetch0
  1443  1DF2  0080               	movwf	0
  1444  1DF3  0A84               	incf	4,f
  1445  1DF4  0804               	movf	4,w
  1446  1DF5  067D               	xorwf	btemp+-1,w
  1447  1DF6  1903               	btfsc	3,2
  1448  1DF7  3400               	retlw	0
  1449  1DF8  0AFF               	incf	btemp+1,f
  1450  1DF9  1903               	btfsc	3,2
  1451  1DFA  0AFE               	incf	btemp,f
  1452  1DFB  2DED               	goto	init_ram0
  1453                           
  1454                           	psect	cstackBANK3
  1455  0190                     __pcstackBANK3:
  1456  0190                     main@i_281:
  1457                           
  1458                           ; 2 bytes @ 0x0
  1459  0190                     	ds	2
  1460  0192                     main@j_282:
  1461                           
  1462                           ; 2 bytes @ 0x2
  1463  0192                     	ds	2
  1464  0194                     main@i_305:
  1465                           
  1466                           ; 2 bytes @ 0x4
  1467  0194                     	ds	2
  1468  0196                     main@j_306:
  1469                           
  1470                           ; 2 bytes @ 0x6
  1471  0196                     	ds	2
  1472  0198                     main@i_309:
  1473                           
  1474                           ; 2 bytes @ 0x8
  1475  0198                     	ds	2
  1476  019A                     main@j_310:
  1477                           
  1478                           ; 2 bytes @ 0xA
  1479  019A                     	ds	2
  1480  019C                     main@i_313:
  1481                           
  1482                           ; 2 bytes @ 0xC
  1483  019C                     	ds	2
  1484  019E                     main@j_314:
  1485                           
  1486                           ; 2 bytes @ 0xE
  1487  019E                     	ds	2
  1488  01A0                     main@j_317:
  1489                           
  1490                           ; 1 bytes @ 0x10
  1491  01A0                     	ds	1
  1492  01A1                     main@time_count_increment_293:
  1493                           
  1494                           ; 2 bytes @ 0x11
  1495  01A1                     	ds	2
  1496  01A3                     main@time_count_increment:
  1497                           
  1498                           ; 2 bytes @ 0x13
  1499  01A3                     	ds	2
  1500  01A5                     main@time_count_decrement:
  1501                           
  1502                           ; 2 bytes @ 0x15
  1503  01A5                     	ds	2
  1504  01A7                     main@log_select:
  1505                           
  1506                           ; 2 bytes @ 0x17
  1507  01A7                     	ds	2
  1508  01A9                     main@temp_password:
  1509                           
  1510                           ; 1 bytes @ 0x19
  1511  01A9                     	ds	1
  1512  01AA                     main@clock_reg:
  1513                           
  1514                           ; 3 bytes @ 0x1A
  1515  01AA                     	ds	3
  1516  01AD                     main@key_level:
  1517                           
  1518                           ; 1 bytes @ 0x1D
  1519  01AD                     	ds	1
  1520  01AE                     main@field_select:
  1521                           
  1522                           ; 2 bytes @ 0x1E
  1523  01AE                     	ds	2
  1524  01B0                     main@i_288:
  1525                           
  1526                           ; 1 bytes @ 0x20
  1527  01B0                     	ds	1
  1528  01B1                     main@i_318:
  1529                           
  1530                           ; 1 bytes @ 0x21
  1531  01B1                     	ds	1
  1532  01B2                     main@menu_flag:
  1533                           
  1534                           ; 2 bytes @ 0x22
  1535  01B2                     	ds	2
  1536  01B4                     main@count:
  1537                           
  1538                           ; 1 bytes @ 0x24
  1539  01B4                     	ds	1
  1540  01B5                     main@event_count:
  1541                           
  1542                           ; 2 bytes @ 0x25
  1543  01B5                     	ds	2
  1544  01B7                     main@gear_idx:
  1545                           
  1546                           ; 2 bytes @ 0x27
  1547  01B7                     	ds	2
  1548  01B9                     main@menu_select:
  1549                           
  1550                           ; 2 bytes @ 0x29
  1551  01B9                     	ds	2
  1552  01BB                     main@event_idx:
  1553                           
  1554                           ; 2 bytes @ 0x2B
  1555  01BB                     	ds	2
  1556  01BD                     main@key_state:
  1557                           
  1558                           ; 1 bytes @ 0x2D
  1559  01BD                     	ds	1
  1560                           
  1561                           	psect	cstackBANK1
  1562  00A0                     __pcstackBANK1:
  1563  00A0                     main@log_display:
  1564                           
  1565                           ; 17 bytes @ 0x0
  1566  00A0                     	ds	17
  1567  00B1                     main@log_display_316:
  1568                           
  1569                           ; 19 bytes @ 0x11
  1570  00B1                     	ds	19
  1571  00C4                     main@addr:
  1572                           
  1573                           ; 20 bytes @ 0x24
  1574  00C4                     	ds	20
  1575  00D8                     main@gear:
  1576                           
  1577                           ; 14 bytes @ 0x38
  1578  00D8                     	ds	14
  1579  00E6                     main@password_flag:
  1580                           
  1581                           ; 2 bytes @ 0x46
  1582  00E6                     	ds	2
  1583  00E8                     main@adc_reg_val_speed:
  1584                           
  1585                           ; 2 bytes @ 0x48
  1586  00E8                     	ds	2
  1587  00EA                     main@gear_flag:
  1588                           
  1589                           ; 2 bytes @ 0x4A
  1590  00EA                     	ds	2
  1591  00EC                     main@i:
  1592                           
  1593                           ; 2 bytes @ 0x4C
  1594  00EC                     	ds	2
  1595  00EE                     main@j:
  1596                           
  1597                           ; 2 bytes @ 0x4E
  1598  00EE                     	ds	2
  1599                           
  1600                           	psect	cstackCOMMON
  1601  0070                     __pcstackCOMMON:
  1602  0070                     ?_i2c_start:
  1603  0070                     ?_i2c_rep_start:	
  1604                           ; 1 bytes @ 0x0
  1605                           
  1606  0070                     ?_i2c_read:	
  1607                           ; 1 bytes @ 0x0
  1608                           
  1609  0070                     ?_i2c_stop:	
  1610                           ; 1 bytes @ 0x0
  1611                           
  1612  0070                     ?_read_ds1307:	
  1613                           ; 1 bytes @ 0x0
  1614                           
  1615  0070                     ?_init_matrix_keypad:	
  1616                           ; 1 bytes @ 0x0
  1617                           
  1618  0070                     ?_init_timer0:	
  1619                           ; 1 bytes @ 0x0
  1620                           
  1621  0070                     ?_read_matrix_keypad:	
  1622                           ; 1 bytes @ 0x0
  1623                           
  1624  0070                     ?_read_24c02:	
  1625                           ; 1 bytes @ 0x0
  1626                           
  1627  0070                     ?_init_adc:	
  1628                           ; 1 bytes @ 0x0
  1629                           
  1630  0070                     ?_init_display_controller:	
  1631                           ; 1 bytes @ 0x0
  1632                           
  1633  0070                     ?_init_clcd:	
  1634                           ; 1 bytes @ 0x0
  1635                           
  1636  0070                     ?_init_ds1307:	
  1637                           ; 1 bytes @ 0x0
  1638                           
  1639  0070                     ?_i2c_wait_for_idle:	
  1640                           ; 1 bytes @ 0x0
  1641                           
  1642  0070                     ?_isr:	
  1643                           ; 1 bytes @ 0x0
  1644                           
  1645  0070                     ??_isr:	
  1646                           ; 1 bytes @ 0x0
  1647                           
  1648  0070                     ?_display_time:	
  1649                           ; 1 bytes @ 0x0
  1650                           
  1651  0070                     ?_get_time:	
  1652                           ; 1 bytes @ 0x0
  1653                           
  1654  0070                     ?_init_config:	
  1655                           ; 1 bytes @ 0x0
  1656                           
  1657  0070                     ?_main:	
  1658                           ; 1 bytes @ 0x0
  1659                           
  1660  0070                     ?_scan_keypad:	
  1661                           ; 1 bytes @ 0x0
  1662                           
  1663  0070                     ?_uart_putchar:	
  1664                           ; 1 bytes @ 0x0
  1665                           
  1666  0070                     ?_i2c_write:	
  1667                           ; 1 bytes @ 0x0
  1668                           
  1669                           
  1670                           ; 2 bytes @ 0x0
  1671  0070                     	ds	2
  1672  0072                     ??_i2c_start:
  1673  0072                     ??_i2c_write:	
  1674                           ; 1 bytes @ 0x2
  1675                           
  1676  0072                     ??_i2c_rep_start:	
  1677                           ; 1 bytes @ 0x2
  1678                           
  1679  0072                     ??_i2c_read:	
  1680                           ; 1 bytes @ 0x2
  1681                           
  1682  0072                     ??_i2c_stop:	
  1683                           ; 1 bytes @ 0x2
  1684                           
  1685  0072                     ??_init_matrix_keypad:	
  1686                           ; 1 bytes @ 0x2
  1687                           
  1688  0072                     ??_init_timer0:	
  1689                           ; 1 bytes @ 0x2
  1690                           
  1691  0072                     ??_init_adc:	
  1692                           ; 1 bytes @ 0x2
  1693                           
  1694  0072                     ?_clcd_write:	
  1695                           ; 1 bytes @ 0x2
  1696                           
  1697  0072                     ??_i2c_wait_for_idle:	
  1698                           ; 1 bytes @ 0x2
  1699                           
  1700  0072                     ??_scan_keypad:	
  1701                           ; 1 bytes @ 0x2
  1702                           
  1703  0072                     ??_uart_putchar:	
  1704                           ; 1 bytes @ 0x2
  1705                           
  1706  0072                     ?__Umul8_16:	
  1707                           ; 1 bytes @ 0x2
  1708                           
  1709  0072                     ?_read_adc:	
  1710                           ; 2 bytes @ 0x2
  1711                           
  1712  0072                     ?___awdiv:	
  1713                           ; 2 bytes @ 0x2
  1714                           
  1715  0072                     ?___awmod:	
  1716                           ; 2 bytes @ 0x2
  1717                           
  1718  0072                     ?___lldiv:	
  1719                           ; 2 bytes @ 0x2
  1720                           
  1721  0072                     clcd_write@mode:	
  1722                           ; 4 bytes @ 0x2
  1723                           
  1724  0072                     i2c_write@data:	
  1725                           ; 1 bytes @ 0x2
  1726                           
  1727  0072                     uart_putchar@data:	
  1728                           ; 1 bytes @ 0x2
  1729                           
  1730  0072                     __Umul8_16@multiplicand:	
  1731                           ; 1 bytes @ 0x2
  1732                           
  1733  0072                     scan_keypad@i:	
  1734                           ; 1 bytes @ 0x2
  1735                           
  1736  0072                     ___awdiv@divisor:	
  1737                           ; 2 bytes @ 0x2
  1738                           
  1739  0072                     ___awmod@divisor:	
  1740                           ; 2 bytes @ 0x2
  1741                           
  1742  0072                     ___lldiv@divisor:	
  1743                           ; 2 bytes @ 0x2
  1744                           
  1745                           
  1746                           ; 4 bytes @ 0x2
  1747  0072                     	ds	1
  1748  0073                     ?_write_ds1307:
  1749  0073                     ?_uart_puts:	
  1750                           ; 1 bytes @ 0x3
  1751                           
  1752  0073                     ?_write_24c02:	
  1753                           ; 1 bytes @ 0x3
  1754                           
  1755  0073                     ??_clcd_write:	
  1756                           ; 1 bytes @ 0x3
  1757                           
  1758  0073                     write_24c02@data:	
  1759                           ; 1 bytes @ 0x3
  1760                           
  1761  0073                     write_ds1307@data:	
  1762                           ; 1 bytes @ 0x3
  1763                           
  1764  0073                     i2c_read@ack:	
  1765                           ; 1 bytes @ 0x3
  1766                           
  1767  0073                     uart_puts@s:	
  1768                           ; 1 bytes @ 0x3
  1769                           
  1770                           
  1771                           ; 2 bytes @ 0x3
  1772  0073                     	ds	1
  1773  0074                     ??_write_ds1307:
  1774  0074                     ??_read_matrix_keypad:	
  1775                           ; 1 bytes @ 0x4
  1776                           
  1777  0074                     ??__Umul8_16:	
  1778                           ; 1 bytes @ 0x4
  1779                           
  1780  0074                     ??_write_24c02:	
  1781                           ; 1 bytes @ 0x4
  1782                           
  1783  0074                     ??_read_adc:	
  1784                           ; 1 bytes @ 0x4
  1785                           
  1786  0074                     write_24c02@addr:	
  1787                           ; 1 bytes @ 0x4
  1788                           
  1789  0074                     write_ds1307@addr:	
  1790                           ; 1 bytes @ 0x4
  1791                           
  1792  0074                     i2c_read@data:	
  1793                           ; 1 bytes @ 0x4
  1794                           
  1795  0074                     ___awdiv@dividend:	
  1796                           ; 1 bytes @ 0x4
  1797                           
  1798  0074                     ___awmod@dividend:	
  1799                           ; 2 bytes @ 0x4
  1800                           
  1801                           
  1802                           ; 2 bytes @ 0x4
  1803  0074                     	ds	1
  1804  0075                     ??_read_ds1307:
  1805  0075                     ??_uart_puts:	
  1806                           ; 1 bytes @ 0x5
  1807                           
  1808  0075                     ??_read_24c02:	
  1809                           ; 1 bytes @ 0x5
  1810                           
  1811  0075                     ??_write_external_eeprom:	
  1812                           ; 1 bytes @ 0x5
  1813                           
  1814  0075                     read_adc@channel:	
  1815                           ; 1 bytes @ 0x5
  1816                           
  1817  0075                     clcd_write@byte:	
  1818                           ; 1 bytes @ 0x5
  1819                           
  1820  0075                     read_matrix_keypad@mode:	
  1821                           ; 1 bytes @ 0x5
  1822                           
  1823                           
  1824                           ; 1 bytes @ 0x5
  1825  0075                     	ds	1
  1826  0076                     ??_init_display_controller:
  1827  0076                     ?_clcd_putch:	
  1828                           ; 1 bytes @ 0x6
  1829                           
  1830  0076                     ?_clcd_print:	
  1831                           ; 1 bytes @ 0x6
  1832                           
  1833  0076                     ??___awdiv:	
  1834                           ; 1 bytes @ 0x6
  1835                           
  1836  0076                     ??___awmod:	
  1837                           ; 1 bytes @ 0x6
  1838                           
  1839  0076                     read_24c02@addr:	
  1840                           ; 1 bytes @ 0x6
  1841                           
  1842  0076                     clcd_putch@addr:	
  1843                           ; 1 bytes @ 0x6
  1844                           
  1845  0076                     read_ds1307@addr:	
  1846                           ; 1 bytes @ 0x6
  1847                           
  1848  0076                     read_matrix_keypad@key:	
  1849                           ; 1 bytes @ 0x6
  1850                           
  1851  0076                     read_adc@adc_reg_val:	
  1852                           ; 1 bytes @ 0x6
  1853                           
  1854  0076                     clcd_print@str:	
  1855                           ; 2 bytes @ 0x6
  1856                           
  1857  0076                     ___lldiv@dividend:	
  1858                           ; 2 bytes @ 0x6
  1859                           
  1860                           
  1861                           ; 4 bytes @ 0x6
  1862  0076                     	ds	1
  1863  0077                     ??_clcd_putch:
  1864  0077                     read_24c02@data:	
  1865                           ; 1 bytes @ 0x7
  1866                           
  1867  0077                     clcd_putch@data:	
  1868                           ; 1 bytes @ 0x7
  1869                           
  1870  0077                     read_ds1307@data:	
  1871                           ; 1 bytes @ 0x7
  1872                           
  1873  0077                     ___awmod@counter:	
  1874                           ; 1 bytes @ 0x7
  1875                           
  1876                           
  1877                           ; 1 bytes @ 0x7
  1878  0077                     	ds	1
  1879  0078                     ??_init_clcd:
  1880  0078                     ??_init_ds1307:	
  1881                           ; 1 bytes @ 0x8
  1882                           
  1883  0078                     ??_get_time:	
  1884                           ; 1 bytes @ 0x8
  1885                           
  1886  0078                     clcd_print@addr:	
  1887                           ; 1 bytes @ 0x8
  1888                           
  1889  0078                     write_external_eeprom@i:	
  1890                           ; 1 bytes @ 0x8
  1891                           
  1892  0078                     ___awmod@sign:	
  1893                           ; 1 bytes @ 0x8
  1894                           
  1895  0078                     ___fltol@sign1:	
  1896                           ; 1 bytes @ 0x8
  1897                           
  1898                           
  1899                           ; 1 bytes @ 0x8
  1900  0078                     	ds	1
  1901  0079                     ??_clcd_print:
  1902  0079                     ??_display:	
  1903                           ; 1 bytes @ 0x9
  1904                           
  1905  0079                     init_ds1307@dummy:	
  1906                           ; 1 bytes @ 0x9
  1907                           
  1908  0079                     display_time@clock_reg:	
  1909                           ; 1 bytes @ 0x9
  1910                           
  1911  0079                     get_time@clock_reg:	
  1912                           ; 1 bytes @ 0x9
  1913                           
  1914  0079                     ___fltol@exp1:	
  1915                           ; 1 bytes @ 0x9
  1916                           
  1917                           
  1918                           ; 1 bytes @ 0x9
  1919  0079                     	ds	1
  1920  007A                     ??_init_config:
  1921                           
  1922                           	psect	cstackBANK0
  1923  0020                     __pcstackBANK0:	
  1924                           ; 1 bytes @ 0xA
  1925                           
  1926  0020                     ??_display_time:
  1927  0020                     ?_write_external_eeprom:	
  1928                           ; 1 bytes @ 0x0
  1929                           
  1930  0020                     ??___lldiv:	
  1931                           ; 1 bytes @ 0x0
  1932                           
  1933  0020                     ?_check_password:	
  1934                           ; 1 bytes @ 0x0
  1935                           
  1936  0020                     ?___xxtofl:	
  1937                           ; 2 bytes @ 0x0
  1938                           
  1939  0020                     ___awdiv@counter:	
  1940                           ; 4 bytes @ 0x0
  1941                           
  1942  0020                     write_external_eeprom@event_idx:	
  1943                           ; 1 bytes @ 0x0
  1944                           
  1945  0020                     __Umul8_16@product:	
  1946                           ; 2 bytes @ 0x0
  1947                           
  1948  0020                     ___xxtofl@val:	
  1949                           ; 2 bytes @ 0x0
  1950                           
  1951                           
  1952                           ; 4 bytes @ 0x0
  1953  0020                     	ds	1
  1954  0021                     ___awdiv@sign:
  1955  0021                     ___lldiv@quotient:	
  1956                           ; 1 bytes @ 0x1
  1957                           
  1958                           
  1959                           ; 4 bytes @ 0x1
  1960  0021                     	ds	1
  1961  0022                     ??_check_password:
  1962  0022                     write_external_eeprom@addr:	
  1963                           ; 1 bytes @ 0x2
  1964                           
  1965  0022                     ___awdiv@quotient:	
  1966                           ; 2 bytes @ 0x2
  1967                           
  1968  0022                     __Umul8_16@word_mpld:	
  1969                           ; 2 bytes @ 0x2
  1970                           
  1971                           
  1972                           ; 2 bytes @ 0x2
  1973  0022                     	ds	2
  1974  0024                     ?_display:
  1975  0024                     ??___xxtofl:	
  1976                           ; 1 bytes @ 0x4
  1977                           
  1978  0024                     check_password@org_password:	
  1979                           ; 1 bytes @ 0x4
  1980                           
  1981  0024                     __Umul8_16@multiplier:	
  1982                           ; 1 bytes @ 0x4
  1983                           
  1984  0024                     display@adc_reg_val_speed:	
  1985                           ; 1 bytes @ 0x4
  1986                           
  1987  0024                     write_external_eeprom@gear:	
  1988                           ; 2 bytes @ 0x4
  1989                           
  1990                           
  1991                           ; 2 bytes @ 0x4
  1992  0024                     	ds	1
  1993  0025                     check_password@key_state:
  1994  0025                     ___lldiv@counter:	
  1995                           ; 1 bytes @ 0x5
  1996                           
  1997                           
  1998                           ; 1 bytes @ 0x5
  1999  0025                     	ds	1
  2000  0026                     ?_init_uart:
  2001  0026                     ?_init_i2c:	
  2002                           ; 1 bytes @ 0x6
  2003                           
  2004  0026                     check_password@temp_password:	
  2005                           ; 1 bytes @ 0x6
  2006                           
  2007  0026                     display@i:	
  2008                           ; 1 bytes @ 0x6
  2009                           
  2010  0026                     init_i2c@baud:	
  2011                           ; 2 bytes @ 0x6
  2012                           
  2013  0026                     init_uart@baud:	
  2014                           ; 4 bytes @ 0x6
  2015                           
  2016                           
  2017                           ; 4 bytes @ 0x6
  2018  0026                     	ds	1
  2019  0027                     check_password@count:
  2020                           
  2021                           ; 1 bytes @ 0x7
  2022  0027                     	ds	1
  2023  0028                     ___xxtofl@sign:
  2024                           
  2025                           ; 1 bytes @ 0x8
  2026  0028                     	ds	1
  2027  0029                     ___xxtofl@exp:
  2028                           
  2029                           ; 1 bytes @ 0x9
  2030  0029                     	ds	1
  2031  002A                     ??_init_uart:
  2032  002A                     ??_init_i2c:	
  2033                           ; 1 bytes @ 0xA
  2034                           
  2035  002A                     ___xxtofl@arg:	
  2036                           ; 1 bytes @ 0xA
  2037                           
  2038                           
  2039                           ; 4 bytes @ 0xA
  2040  002A                     	ds	4
  2041  002E                     ?___fldiv:
  2042  002E                     ___fldiv@a:	
  2043                           ; 4 bytes @ 0xE
  2044                           
  2045                           
  2046                           ; 4 bytes @ 0xE
  2047  002E                     	ds	4
  2048  0032                     ___fldiv@b:
  2049                           
  2050                           ; 4 bytes @ 0x12
  2051  0032                     	ds	4
  2052  0036                     ??___fldiv:
  2053                           
  2054                           ; 1 bytes @ 0x16
  2055  0036                     	ds	5
  2056  003B                     ___fldiv@rem:
  2057                           
  2058                           ; 4 bytes @ 0x1B
  2059  003B                     	ds	4
  2060  003F                     ___fldiv@sign:
  2061                           
  2062                           ; 1 bytes @ 0x1F
  2063  003F                     	ds	1
  2064  0040                     ___fldiv@new_exp:
  2065                           
  2066                           ; 2 bytes @ 0x20
  2067  0040                     	ds	2
  2068  0042                     ___fldiv@grs:
  2069                           
  2070                           ; 4 bytes @ 0x22
  2071  0042                     	ds	4
  2072  0046                     ___fldiv@bexp:
  2073                           
  2074                           ; 1 bytes @ 0x26
  2075  0046                     	ds	1
  2076  0047                     ___fldiv@aexp:
  2077                           
  2078                           ; 1 bytes @ 0x27
  2079  0047                     	ds	1
  2080  0048                     ?___flmul:
  2081  0048                     ___flmul@b:	
  2082                           ; 4 bytes @ 0x28
  2083                           
  2084                           
  2085                           ; 4 bytes @ 0x28
  2086  0048                     	ds	4
  2087  004C                     ___flmul@a:
  2088                           
  2089                           ; 4 bytes @ 0x2C
  2090  004C                     	ds	4
  2091  0050                     ??___flmul:
  2092                           
  2093                           ; 1 bytes @ 0x30
  2094  0050                     	ds	5
  2095  0055                     ___flmul@sign:
  2096                           
  2097                           ; 1 bytes @ 0x35
  2098  0055                     	ds	1
  2099  0056                     ___flmul@aexp:
  2100                           
  2101                           ; 1 bytes @ 0x36
  2102  0056                     	ds	1
  2103  0057                     ___flmul@grs:
  2104                           
  2105                           ; 4 bytes @ 0x37
  2106  0057                     	ds	4
  2107  005B                     ___flmul@bexp:
  2108                           
  2109                           ; 1 bytes @ 0x3B
  2110  005B                     	ds	1
  2111  005C                     ___flmul@prod:
  2112                           
  2113                           ; 4 bytes @ 0x3C
  2114  005C                     	ds	4
  2115  0060                     ___flmul@temp:
  2116                           
  2117                           ; 2 bytes @ 0x40
  2118  0060                     	ds	2
  2119  0062                     ?___fltol:
  2120  0062                     ___fltol@f1:	
  2121                           ; 4 bytes @ 0x42
  2122                           
  2123                           
  2124                           ; 4 bytes @ 0x42
  2125  0062                     	ds	4
  2126  0066                     ??___fltol:
  2127                           
  2128                           ; 1 bytes @ 0x46
  2129  0066                     	ds	5
  2130  006B                     ??_main:
  2131                           
  2132                           ; 1 bytes @ 0x4B
  2133  006B                     	ds	4
  2134  006F                     main@key_state_301:
  2135                           
  2136                           ; 1 bytes @ 0x4F
  2137  006F                     	ds	1
  2138                           
  2139                           	psect	maintext
  2140  0392                     __pmaintext:	
  2141 ;;
  2142 ;;Main: autosize = 0, tempsize = 4, incstack = 0, save=0
  2143 ;;
  2144 ;; *************** function _main *****************
  2145 ;; Defined at:
  2146 ;;		line 145 in file "main.c"
  2147 ;; Parameters:    Size  Location     Type
  2148 ;;		None
  2149 ;; Auto vars:     Size  Location     Type
  2150 ;;  i               1   33[BANK3 ] unsigned char 
  2151 ;;  j               2   10[BANK3 ] unsigned int 
  2152 ;;  j               2    6[BANK3 ] unsigned int 
  2153 ;;  j               2    2[BANK3 ] unsigned int 
  2154 ;;  j               2   14[BANK3 ] unsigned int 
  2155 ;;  i               2    8[BANK3 ] unsigned int 
  2156 ;;  i               2    4[BANK3 ] unsigned int 
  2157 ;;  i               1   32[BANK3 ] unsigned char 
  2158 ;;  i               2    0[BANK3 ] unsigned int 
  2159 ;;  j               2   78[BANK1 ] unsigned int 
  2160 ;;  j               1   16[BANK3 ] unsigned char 
  2161 ;;  i               2   12[BANK3 ] unsigned int 
  2162 ;;  count           1   36[BANK3 ] unsigned char 
  2163 ;;  temp_passwor    1   25[BANK3 ] unsigned char 
  2164 ;;  key_state       1   79[BANK0 ] unsigned char 
  2165 ;;  log_display    17    0[BANK1 ] unsigned char [17]
  2166 ;;  i               2   76[BANK1 ] unsigned int 
  2167 ;;  log_display    19   17[BANK1 ] unsigned char [19]
  2168 ;;  field_select    2   30[BANK3 ] int 
  2169 ;;  time_count_i    2   17[BANK3 ] int 
  2170 ;;  log_select      2   23[BANK3 ] unsigned int 
  2171 ;;  time_count_d    2   21[BANK3 ] unsigned int 
  2172 ;;  time_count_i    2   19[BANK3 ] unsigned int 
  2173 ;;  adc_reg_val_    2   72[BANK1 ] unsigned int 
  2174 ;;  addr           20   36[BANK1 ] unsigned int [10]
  2175 ;;  gear           14   56[BANK1 ] PTR unsigned char [7]
  2176 ;;		 -> STR_8(3), STR_7(3), STR_6(3), STR_5(3), 
  2177 ;;		 -> STR_4(3), STR_3(3), STR_2(3), 
  2178 ;;  clock_reg       3   26[BANK3 ] unsigned char [3]
  2179 ;;  event_idx       2   43[BANK3 ] unsigned int 
  2180 ;;  menu_select     2   41[BANK3 ] int 
  2181 ;;  gear_idx        2   39[BANK3 ] int 
  2182 ;;  event_count     2   37[BANK3 ] unsigned int 
  2183 ;;  menu_flag       2   34[BANK3 ] int 
  2184 ;;  gear_flag       2   74[BANK1 ] int 
  2185 ;;  password_fla    2   70[BANK1 ] int 
  2186 ;;  key_state       1   45[BANK3 ] unsigned char 
  2187 ;;  key_level       1   29[BANK3 ] unsigned char 
  2188 ;;  org_password    1    0        unsigned char 
  2189 ;; Return value:  Size  Location     Type
  2190 ;;                  1    wreg      void 
  2191 ;; Registers used:
  2192 ;;		wreg, fsr0l, fsr0h, status,2, status,0, btemp+1, pclath, cstack
  2193 ;; Tracked objects:
  2194 ;;		On entry : B00/0
  2195 ;;		On exit  : 0/0
  2196 ;;		Unchanged: 0/0
  2197 ;; Data sizes:     COMMON   BANK0   BANK1   BANK3   BANK2
  2198 ;;      Params:         0       0       0       0       0
  2199 ;;      Locals:         0       1      80      46       0
  2200 ;;      Temps:          0       4       0       0       0
  2201 ;;      Totals:         0       5      80      46       0
  2202 ;;Total ram usage:      131 bytes
  2203 ;; Hardware stack levels required when called: 7
  2204 ;; This function calls:
  2205 ;;		___fldiv
  2206 ;;		___flmul
  2207 ;;		___fltol
  2208 ;;		___xxtofl
  2209 ;;		_check_password
  2210 ;;		_clcd_print
  2211 ;;		_clcd_putch
  2212 ;;		_display
  2213 ;;		_display_time
  2214 ;;		_get_time
  2215 ;;		_init_config
  2216 ;;		_read_24c02
  2217 ;;		_read_adc
  2218 ;;		_read_matrix_keypad
  2219 ;;		_uart_puts
  2220 ;;		_write_24c02
  2221 ;;		_write_ds1307
  2222 ;;		_write_external_eeprom
  2223 ;; This function is called by:
  2224 ;;		Startup code after reset
  2225 ;; This function uses a non-reentrant model
  2226 ;;
  2227                           
  2228  0392                     _main:	
  2229                           ;psect for function _main
  2230                           
  2231  0392                     l4839:	
  2232                           ;incstack = 0
  2233                           ; Regs used in _main: [wreg-fsr0h+status,2+status,0+btemp+1+pclath+cstack]
  2234                           
  2235                           
  2236                           ;main.c: 146: 
  2237  0392  160A  118A  2223  120A  118A  	fcall	_init_config
  2238  0397                     l4841:
  2239                           
  2240                           ;main.c: 147:         get_time(clock_reg);;main.c: 148:         display_time(clock_reg);
      +                          ;main.c: 151:         {
  2241  0397  30D8               	movlw	main@gear& (0+255)
  2242  0398  0084               	movwf	4
  2243  0399  30D2               	movlw	low main@F919
  2244  039A  1283               	bcf	3,5	;RP0=0, select bank0
  2245  039B  1303               	bcf	3,6	;RP1=0, select bank0
  2246  039C  00EB               	movwf	??_main
  2247  039D  0804               	movf	4,w
  2248  039E  00EC               	movwf	??_main+1
  2249  039F  300E               	movlw	14
  2250  03A0  00ED               	movwf	??_main+2
  2251  03A1                     u6550:
  2252  03A1  086B               	movf	??_main,w
  2253  03A2  0084               	movwf	4
  2254  03A3  1783               	bsf	3,7	;select IRP bank3
  2255  03A4  0800               	movf	0,w
  2256  03A5  00EE               	movwf	??_main+3
  2257  03A6  0AEB               	incf	??_main,f
  2258  03A7  086C               	movf	??_main+1,w
  2259  03A8  0084               	movwf	4
  2260  03A9  1383               	bcf	3,7	;select IRP bank1
  2261  03AA  086E               	movf	??_main+3,w
  2262  03AB  0080               	movwf	0
  2263  03AC  0AEC               	incf	??_main+1,f
  2264  03AD  0BED               	decfsz	??_main+2,f
  2265  03AE  2BA1               	goto	u6550
  2266  03AF                     l4843:
  2267  03AF                     l4845:
  2268                           
  2269                           ;main.c: 153:             clcd_print("                ", (0x80 + 0));
  2270  03AF  01F3               	clrf	write_24c02@data
  2271  03B0  3004               	movlw	4
  2272  03B1  160A  158A  2633  120A  118A  	fcall	_write_24c02
  2273  03B6                     l4847:
  2274                           
  2275                           ;main.c: 154:             clcd_print("                ", (0xC0 + 0));
  2276  03B6  30C4               	movlw	main@addr& (0+255)
  2277  03B7  0084               	movwf	4
  2278  03B8  30BE               	movlw	low main@F922
  2279  03B9  1283               	bcf	3,5	;RP0=0, select bank0
  2280  03BA  1303               	bcf	3,6	;RP1=0, select bank0
  2281  03BB  00EB               	movwf	??_main
  2282  03BC  0804               	movf	4,w
  2283  03BD  00EC               	movwf	??_main+1
  2284  03BE  3014               	movlw	20
  2285  03BF  00ED               	movwf	??_main+2
  2286  03C0                     u6560:
  2287  03C0  086B               	movf	??_main,w
  2288  03C1  0084               	movwf	4
  2289  03C2  1783               	bsf	3,7	;select IRP bank3
  2290  03C3  0800               	movf	0,w
  2291  03C4  00EE               	movwf	??_main+3
  2292  03C5  0AEB               	incf	??_main,f
  2293  03C6  086C               	movf	??_main+1,w
  2294  03C7  0084               	movwf	4
  2295  03C8  1383               	bcf	3,7	;select IRP bank1
  2296  03C9  086E               	movf	??_main+3,w
  2297  03CA  0080               	movwf	0
  2298  03CB  0AEC               	incf	??_main+1,f
  2299  03CC  0BED               	decfsz	??_main+2,f
  2300  03CD  2BC0               	goto	u6560
  2301                           
  2302                           ;main.c: 155:             key_state = 0xFF;
  2303  03CE  1683               	bsf	3,5	;RP0=1, select bank3
  2304  03CF  1703               	bsf	3,6	;RP1=1, select bank3
  2305  03D0  01B5               	clrf	main@event_count^(0+384)
  2306  03D1  01B6               	clrf	(main@event_count+1)^(0+384)
  2307  03D2  01BB               	clrf	main@event_idx^(0+384)
  2308  03D3  01BC               	clrf	(main@event_idx+1)^(0+384)
  2309  03D4                     l4849:
  2310                           
  2311                           ;main.c: 156:             password_flag = 0;
  2312  03D4  30FF               	movlw	255
  2313  03D5  00B7               	movwf	main@gear_idx^(0+384)
  2314  03D6  30FF               	movlw	255
  2315  03D7  00B8               	movwf	(main@gear_idx^(0+384)+1)
  2316  03D8                     l4851:
  2317  03D8  1683               	bsf	3,5	;RP0=1, select bank1
  2318  03D9  1303               	bcf	3,6	;RP1=0, select bank1
  2319  03DA  01EA               	clrf	main@gear_flag^(0+128)
  2320  03DB  01EB               	clrf	(main@gear_flag+1)^(0+128)
  2321  03DC                     l4853:
  2322  03DC  1683               	bsf	3,5	;RP0=1, select bank3
  2323  03DD  1703               	bsf	3,6	;RP1=1, select bank3
  2324  03DE  01B2               	clrf	main@menu_flag^(0+384)
  2325  03DF  01B3               	clrf	(main@menu_flag+1)^(0+384)
  2326  03E0                     l4855:
  2327  03E0  01B9               	clrf	main@menu_select^(0+384)
  2328  03E1  01BA               	clrf	(main@menu_select+1)^(0+384)
  2329  03E2                     l4857:
  2330  03E2  1683               	bsf	3,5	;RP0=1, select bank1
  2331  03E3  1303               	bcf	3,6	;RP1=0, select bank1
  2332  03E4  01E6               	clrf	main@password_flag^(0+128)
  2333  03E5  01E7               	clrf	(main@password_flag+1)^(0+128)
  2334  03E6                     l4859:
  2335                           
  2336                           ;main.c: 159: 
  2337  03E6  3038               	movlw	low (STR_9| (0+32768))
  2338  03E7  00F6               	movwf	clcd_print@str
  2339  03E8  3091               	movlw	high (STR_9| (0+32768))
  2340  03E9  00F7               	movwf	clcd_print@str+1
  2341  03EA  3080               	movlw	128
  2342  03EB  1283               	bcf	3,5	;RP0=0, select bank0
  2343  03EC  1303               	bcf	3,6	;RP1=0, select bank0
  2344  03ED  00EB               	movwf	??_main
  2345  03EE  086B               	movf	??_main,w
  2346  03EF  00F8               	movwf	clcd_print@addr
  2347  03F0  160A  158A  27D1  120A  118A  	fcall	_clcd_print
  2348  03F5                     l4861:
  2349                           
  2350                           ;main.c: 160:         if(menu_flag == 0)
  2351  03F5  3001               	movlw	1
  2352  03F6  160A  158A  274E  120A  118A  	fcall	_read_matrix_keypad
  2353  03FB  1283               	bcf	3,5	;RP0=0, select bank0
  2354  03FC  1303               	bcf	3,6	;RP1=0, select bank0
  2355  03FD  00EB               	movwf	??_main
  2356  03FE  086B               	movf	??_main,w
  2357  03FF  1683               	bsf	3,5	;RP0=1, select bank3
  2358  0400  1703               	bsf	3,6	;RP1=1, select bank3
  2359  0401  00BD               	movwf	main@key_state^(0+384)
  2360  0402                     l4863:
  2361                           
  2362                           ;main.c: 161:         {
  2363  0402  3000               	movlw	0
  2364  0403  160A  158A  274E  120A  118A  	fcall	_read_matrix_keypad
  2365  0408  1283               	bcf	3,5	;RP0=0, select bank0
  2366  0409  1303               	bcf	3,6	;RP1=0, select bank0
  2367  040A  00EB               	movwf	??_main
  2368  040B  086B               	movf	??_main,w
  2369  040C  1683               	bsf	3,5	;RP0=1, select bank3
  2370  040D  1703               	bsf	3,6	;RP1=1, select bank3
  2371  040E  00AD               	movwf	main@key_level^(0+384)
  2372  040F                     l4865:
  2373                           
  2374                           ;main.c: 163:             if(gear_flag == 0);main.c: 164:             {
  2375  040F  3000               	movlw	0
  2376  0410  160A  158A  2651  120A  118A  	fcall	_read_adc
  2377  0415  0872               	movf	?_read_adc,w
  2378  0416  1283               	bcf	3,5	;RP0=0, select bank0
  2379  0417  1303               	bcf	3,6	;RP1=0, select bank0
  2380  0418  00EB               	movwf	??_main
  2381  0419  0873               	movf	?_read_adc+1,w
  2382  041A  00EC               	movwf	??_main+1
  2383  041B  01ED               	clrf	??_main+2
  2384  041C  01EE               	clrf	??_main+3
  2385  041D  086E               	movf	??_main+3,w
  2386  041E  00A3               	movwf	___xxtofl@val+3
  2387  041F  086D               	movf	??_main+2,w
  2388  0420  00A2               	movwf	___xxtofl@val+2
  2389  0421  086C               	movf	??_main+1,w
  2390  0422  00A1               	movwf	___xxtofl@val+1
  2391  0423  086B               	movf	??_main,w
  2392  0424  00A0               	movwf	___xxtofl@val
  2393  0425  3000               	movlw	0
  2394  0426  160A  118A  2677  120A  118A  	fcall	___xxtofl
  2395  042B  1283               	bcf	3,5	;RP0=0, select bank0
  2396  042C  1303               	bcf	3,6	;RP1=0, select bank0
  2397  042D  0823               	movf	?___xxtofl+3,w
  2398  042E  00B5               	movwf	___fldiv@b+3
  2399  042F  0822               	movf	?___xxtofl+2,w
  2400  0430  00B4               	movwf	___fldiv@b+2
  2401  0431  0821               	movf	?___xxtofl+1,w
  2402  0432  00B3               	movwf	___fldiv@b+1
  2403  0433  0820               	movf	?___xxtofl,w
  2404  0434  00B2               	movwf	___fldiv@b
  2405  0435  3044               	movlw	68
  2406  0436  00B1               	movwf	___fldiv@a+3
  2407  0437  3080               	movlw	128
  2408  0438  00B0               	movwf	___fldiv@a+2
  2409  0439  3000               	movlw	0
  2410  043A  00AF               	movwf	___fldiv@a+1
  2411  043B  3000               	movlw	0
  2412  043C  00AE               	movwf	___fldiv@a
  2413  043D  120A  118A  25EB  120A  118A  	fcall	___fldiv
  2414  0442  1283               	bcf	3,5	;RP0=0, select bank0
  2415  0443  1303               	bcf	3,6	;RP1=0, select bank0
  2416  0444  0831               	movf	?___fldiv+3,w
  2417  0445  00CF               	movwf	___flmul@a+3
  2418  0446  0830               	movf	?___fldiv+2,w
  2419  0447  00CE               	movwf	___flmul@a+2
  2420  0448  082F               	movf	?___fldiv+1,w
  2421  0449  00CD               	movwf	___flmul@a+1
  2422  044A  082E               	movf	?___fldiv,w
  2423  044B  00CC               	movwf	___flmul@a
  2424  044C  3042               	movlw	66
  2425  044D  00CB               	movwf	___flmul@b+3
  2426  044E  30C8               	movlw	200
  2427  044F  00CA               	movwf	___flmul@b+2
  2428  0450  3000               	movlw	0
  2429  0451  00C9               	movwf	___flmul@b+1
  2430  0452  3000               	movlw	0
  2431  0453  00C8               	movwf	___flmul@b
  2432  0454  120A  118A  2031  120A  118A  	fcall	___flmul
  2433  0459  1283               	bcf	3,5	;RP0=0, select bank0
  2434  045A  1303               	bcf	3,6	;RP1=0, select bank0
  2435  045B  084B               	movf	?___flmul+3,w
  2436  045C  00E5               	movwf	___fltol@f1+3
  2437  045D  084A               	movf	?___flmul+2,w
  2438  045E  00E4               	movwf	___fltol@f1+2
  2439  045F  0849               	movf	?___flmul+1,w
  2440  0460  00E3               	movwf	___fltol@f1+1
  2441  0461  0848               	movf	?___flmul,w
  2442  0462  00E2               	movwf	___fltol@f1
  2443  0463  160A  118A  2439  120A  118A  	fcall	___fltol
  2444  0468  1283               	bcf	3,5	;RP0=0, select bank0
  2445  0469  1303               	bcf	3,6	;RP1=0, select bank0
  2446  046A  0863               	movf	?___fltol+1,w
  2447  046B  1683               	bsf	3,5	;RP0=1, select bank1
  2448  046C  1303               	bcf	3,6	;RP1=0, select bank1
  2449  046D  00E9               	movwf	(main@adc_reg_val_speed+1)^(0+128)
  2450  046E  1283               	bcf	3,5	;RP0=0, select bank0
  2451  046F  1303               	bcf	3,6	;RP1=0, select bank0
  2452  0470  0862               	movf	?___fltol,w
  2453  0471  1683               	bsf	3,5	;RP0=1, select bank1
  2454  0472  1303               	bcf	3,6	;RP1=0, select bank1
  2455  0473  00E8               	movwf	main@adc_reg_val_speed^(0+128)
  2456  0474                     l4867:
  2457                           
  2458                           ;main.c: 165:                 clcd_print("ON", (0xC0 + 10));
  2459  0474  0869               	movf	(main@adc_reg_val_speed+1)^(0+128),w
  2460  0475  1283               	bcf	3,5	;RP0=0, select bank0
  2461  0476  1303               	bcf	3,6	;RP1=0, select bank0
  2462  0477  00A5               	movwf	display@adc_reg_val_speed+1
  2463  0478  1683               	bsf	3,5	;RP0=1, select bank1
  2464  0479  1303               	bcf	3,6	;RP1=0, select bank1
  2465  047A  0868               	movf	main@adc_reg_val_speed^(0+128),w
  2466  047B  1283               	bcf	3,5	;RP0=0, select bank0
  2467  047C  1303               	bcf	3,6	;RP1=0, select bank0
  2468  047D  00A4               	movwf	display@adc_reg_val_speed
  2469  047E  160A  118A  225C  120A  118A  	fcall	_display
  2470  0483                     l4869:
  2471                           
  2472                           ;main.c: 168: 
  2473  0483  30AA               	movlw	(low (main@clock_reg| (0+256)))& (0+255)
  2474  0484  160A  158A  26FE  120A  118A  	fcall	_get_time
  2475  0489                     l4871:
  2476                           
  2477                           ;main.c: 169:             if(key_state == 1)
  2478  0489  30AA               	movlw	(low (main@clock_reg| (0+256)))& (0+255)
  2479  048A  160A  118A  24B5  120A  118A  	fcall	_display_time
  2480  048F                     l4873:
  2481                           
  2482                           ;main.c: 171:                 clcd_print("C ", (0xC0 + 10));
  2483  048F  3004               	movlw	4
  2484  0490  1683               	bsf	3,5	;RP0=1, select bank3
  2485  0491  1703               	bsf	3,6	;RP1=1, select bank3
  2486  0492  063D               	xorwf	main@key_state^(0+384),w
  2487  0493  1D03               	btfss	3,2
  2488  0494  2C96               	goto	u6571
  2489  0495  2C97               	goto	u6570
  2490  0496                     u6571:
  2491  0496  2CDB               	goto	l4887
  2492  0497                     u6570:
  2493  0497                     l4875:
  2494                           
  2495                           ;main.c: 172:                 gear_flag = 1;;main.c: 173:                 gear_idx = -1;
  2496  0497  0832               	movf	main@menu_flag^(0+384),w
  2497  0498  0433               	iorwf	(main@menu_flag+1)^(0+384),w
  2498  0499  1903               	btfsc	3,2
  2499  049A  2C9C               	goto	u6581
  2500  049B  2C9E               	goto	u6580
  2501  049C                     u6581:
  2502  049C  3001               	movlw	1
  2503  049D  2C9F               	goto	u6590
  2504  049E                     u6580:
  2505  049E  3000               	movlw	0
  2506  049F                     u6590:
  2507  049F  1283               	bcf	3,5	;RP0=0, select bank0
  2508  04A0  1303               	bcf	3,6	;RP1=0, select bank0
  2509  04A1  00EB               	movwf	??_main
  2510  04A2  01EC               	clrf	??_main+1
  2511  04A3  086B               	movf	??_main,w
  2512  04A4  1683               	bsf	3,5	;RP0=1, select bank3
  2513  04A5  1703               	bsf	3,6	;RP1=1, select bank3
  2514  04A6  00B2               	movwf	main@menu_flag^(0+384)
  2515  04A7  1283               	bcf	3,5	;RP0=0, select bank0
  2516  04A8  1303               	bcf	3,6	;RP1=0, select bank0
  2517  04A9  086C               	movf	??_main+1,w
  2518  04AA  1683               	bsf	3,5	;RP0=1, select bank3
  2519  04AB  1703               	bsf	3,6	;RP1=1, select bank3
  2520  04AC  00B3               	movwf	(main@menu_flag+1)^(0+384)
  2521  04AD                     l4877:
  2522                           
  2523                           ;main.c: 174: 
  2524  04AD  3028               	movlw	low (STR_1| (0+32768))
  2525  04AE  00F6               	movwf	clcd_print@str
  2526  04AF  3090               	movlw	high (STR_1| (0+32768))
  2527  04B0  00F7               	movwf	clcd_print@str+1
  2528  04B1  3080               	movlw	128
  2529  04B2  1283               	bcf	3,5	;RP0=0, select bank0
  2530  04B3  1303               	bcf	3,6	;RP1=0, select bank0
  2531  04B4  00EB               	movwf	??_main
  2532  04B5  086B               	movf	??_main,w
  2533  04B6  00F8               	movwf	clcd_print@addr
  2534  04B7  160A  158A  27D1  120A  118A  	fcall	_clcd_print
  2535  04BC                     l4879:
  2536                           
  2537                           ;main.c: 175:                 write_external_eeprom(event_idx, addr[event_idx], "C_");
  2538  04BC  3028               	movlw	low (STR_1| (0+32768))
  2539  04BD  00F6               	movwf	clcd_print@str
  2540  04BE  3090               	movlw	high (STR_1| (0+32768))
  2541  04BF  00F7               	movwf	clcd_print@str+1
  2542  04C0  30C0               	movlw	192
  2543  04C1  1283               	bcf	3,5	;RP0=0, select bank0
  2544  04C2  1303               	bcf	3,6	;RP1=0, select bank0
  2545  04C3  00EB               	movwf	??_main
  2546  04C4  086B               	movf	??_main,w
  2547  04C5  00F8               	movwf	clcd_print@addr
  2548  04C6  160A  158A  27D1  120A  118A  	fcall	_clcd_print
  2549  04CB                     l4881:
  2550                           
  2551                           ;main.c: 176:                 event_count++;
  2552  04CB  30FF               	movlw	255
  2553  04CC  1283               	bcf	3,5	;RP0=0, select bank0
  2554  04CD  1303               	bcf	3,6	;RP1=0, select bank0
  2555  04CE  00EB               	movwf	??_main
  2556  04CF  086B               	movf	??_main,w
  2557  04D0  1683               	bsf	3,5	;RP0=1, select bank3
  2558  04D1  1703               	bsf	3,6	;RP1=1, select bank3
  2559  04D2  00BD               	movwf	main@key_state^(0+384)
  2560  04D3                     l4883:
  2561                           
  2562                           ;main.c: 177:                 if(++event_idx == 10)
  2563  04D3  1683               	bsf	3,5	;RP0=1, select bank1
  2564  04D4  1303               	bcf	3,6	;RP1=0, select bank1
  2565  04D5  01E6               	clrf	main@password_flag^(0+128)
  2566  04D6  01E7               	clrf	(main@password_flag+1)^(0+128)
  2567  04D7                     l4885:
  2568                           
  2569                           ;main.c: 178:                 {
  2570  04D7  1683               	bsf	3,5	;RP0=1, select bank3
  2571  04D8  1703               	bsf	3,6	;RP1=1, select bank3
  2572  04D9  01B9               	clrf	main@menu_select^(0+384)
  2573  04DA  01BA               	clrf	(main@menu_select+1)^(0+384)
  2574  04DB                     l4887:
  2575                           
  2576                           ;main.c: 181:             }
  2577  04DB  0832               	movf	main@menu_flag^(0+384),w
  2578  04DC  0433               	iorwf	(main@menu_flag+1)^(0+384),w
  2579  04DD  1D03               	btfss	3,2
  2580  04DE  2CE0               	goto	u6601
  2581  04DF  2CE3               	goto	u6600
  2582  04E0                     u6601:
  2583  04E0  120A  158A  2862   	goto	l4939
  2584  04E3                     u6600:
  2585  04E3                     l4889:
  2586                           
  2587                           ;main.c: 182: ;main.c: 184:             if(key_state == 2)
  2588  04E3  1683               	bsf	3,5	;RP0=1, select bank1
  2589  04E4  1303               	bcf	3,6	;RP1=0, select bank1
  2590  04E5  086A               	movf	main@gear_flag^(0+128),w
  2591  04E6  046B               	iorwf	(main@gear_flag+1)^(0+128),w
  2592  04E7  1D03               	btfss	3,2
  2593  04E8  2CEA               	goto	u6611
  2594  04E9  2CEB               	goto	u6610
  2595  04EA                     u6611:
  2596  04EA  2CFA               	goto	l4893
  2597  04EB                     u6610:
  2598  04EB                     l4891:
  2599                           
  2600                           ;main.c: 185:             {;main.c: 186:                 gear_flag = 1;
  2601  04EB  30B3               	movlw	low (STR_12| (0+32768))
  2602  04EC  00F6               	movwf	clcd_print@str
  2603  04ED  3091               	movlw	high (STR_12| (0+32768))
  2604  04EE  00F7               	movwf	clcd_print@str+1
  2605  04EF  30CA               	movlw	202
  2606  04F0  1283               	bcf	3,5	;RP0=0, select bank0
  2607  04F1  1303               	bcf	3,6	;RP1=0, select bank0
  2608  04F2  00EB               	movwf	??_main
  2609  04F3  086B               	movf	??_main,w
  2610  04F4  00F8               	movwf	clcd_print@addr
  2611  04F5  160A  158A  27D1  120A  118A  	fcall	_clcd_print
  2612  04FA                     l4893:
  2613                           
  2614                           ;main.c: 190:                 }
  2615  04FA  1683               	bsf	3,5	;RP0=1, select bank3
  2616  04FB  1703               	bsf	3,6	;RP1=1, select bank3
  2617  04FC  033D               	decf	main@key_state^(0+384),w
  2618  04FD  1D03               	btfss	3,2
  2619  04FE  2D00               	goto	u6621
  2620  04FF  2D01               	goto	u6620
  2621  0500                     u6621:
  2622  0500  2D55               	goto	l4907
  2623  0501                     u6620:
  2624  0501                     l4895:
  2625                           
  2626                           ;main.c: 191:                 clcd_print(gear[gear_idx], (0xC0 + 10));;main.c: 192: 
  2627  0501  309E               	movlw	low (STR_13| (0+32768))
  2628  0502  00F6               	movwf	clcd_print@str
  2629  0503  3091               	movlw	high (STR_13| (0+32768))
  2630  0504  00F7               	movwf	clcd_print@str+1
  2631  0505  30CA               	movlw	202
  2632  0506  1283               	bcf	3,5	;RP0=0, select bank0
  2633  0507  1303               	bcf	3,6	;RP1=0, select bank0
  2634  0508  00EB               	movwf	??_main
  2635  0509  086B               	movf	??_main,w
  2636  050A  00F8               	movwf	clcd_print@addr
  2637  050B  160A  158A  27D1  120A  118A  	fcall	_clcd_print
  2638  0510                     l4897:
  2639                           
  2640                           ;main.c: 193:                 write_external_eeprom(event_idx, addr[event_idx],gear[gear
      +                          _idx] );
  2641  0510  3001               	movlw	1
  2642  0511  1683               	bsf	3,5	;RP0=1, select bank1
  2643  0512  1303               	bcf	3,6	;RP1=0, select bank1
  2644  0513  00EA               	movwf	main@gear_flag^(0+128)
  2645  0514  3000               	movlw	0
  2646  0515  00EB               	movwf	(main@gear_flag^(0+128)+1)
  2647  0516                     l4899:
  2648                           
  2649                           ;main.c: 194:                 event_count++;
  2650  0516  30FF               	movlw	255
  2651  0517  1683               	bsf	3,5	;RP0=1, select bank3
  2652  0518  1703               	bsf	3,6	;RP1=1, select bank3
  2653  0519  00B7               	movwf	main@gear_idx^(0+384)
  2654  051A  30FF               	movlw	255
  2655  051B  00B8               	movwf	(main@gear_idx^(0+384)+1)
  2656                           
  2657                           ;main.c: 196:                 {
  2658  051C  083C               	movf	(main@event_idx+1)^(0+384),w
  2659  051D  1283               	bcf	3,5	;RP0=0, select bank0
  2660  051E  1303               	bcf	3,6	;RP1=0, select bank0
  2661  051F  00A1               	movwf	write_external_eeprom@event_idx+1
  2662  0520  1683               	bsf	3,5	;RP0=1, select bank3
  2663  0521  1703               	bsf	3,6	;RP1=1, select bank3
  2664  0522  083B               	movf	main@event_idx^(0+384),w
  2665  0523  1283               	bcf	3,5	;RP0=0, select bank0
  2666  0524  1303               	bcf	3,6	;RP1=0, select bank0
  2667  0525  00A0               	movwf	write_external_eeprom@event_idx
  2668  0526  1683               	bsf	3,5	;RP0=1, select bank3
  2669  0527  1703               	bsf	3,6	;RP1=1, select bank3
  2670  0528  083B               	movf	main@event_idx^(0+384),w
  2671  0529  1283               	bcf	3,5	;RP0=0, select bank0
  2672  052A  1303               	bcf	3,6	;RP1=0, select bank0
  2673  052B  00EB               	movwf	??_main
  2674  052C  076B               	addwf	??_main,w
  2675  052D  3EC4               	addlw	(low (main@addr| 0))& (0+255)
  2676  052E  0084               	movwf	4
  2677  052F  1383               	bcf	3,7	;select IRP bank1
  2678  0530  0800               	movf	0,w
  2679  0531  00A2               	movwf	write_external_eeprom@addr
  2680  0532  0A84               	incf	4,f
  2681  0533  0800               	movf	0,w
  2682  0534  00A3               	movwf	write_external_eeprom@addr+1
  2683  0535  30B9               	movlw	low (STR_14| (0+32768))
  2684  0536  00A4               	movwf	write_external_eeprom@gear
  2685  0537  3091               	movlw	high (STR_14| (0+32768))
  2686  0538  00A5               	movwf	write_external_eeprom@gear+1
  2687  0539  160A  118A  2733  120A  118A  	fcall	_write_external_eeprom
  2688  053E                     l4901:
  2689                           
  2690                           ;main.c: 197:                     event_idx = 0;
  2691  053E  3001               	movlw	1
  2692  053F  1683               	bsf	3,5	;RP0=1, select bank3
  2693  0540  1703               	bsf	3,6	;RP1=1, select bank3
  2694  0541  07B5               	addwf	main@event_count^(0+384),f
  2695  0542  1803               	skipnc
  2696  0543  0AB6               	incf	(main@event_count+1)^(0+384),f
  2697  0544  3000               	movlw	0
  2698  0545  07B6               	addwf	(main@event_count+1)^(0+384),f
  2699  0546                     l4903:
  2700                           
  2701                           ;main.c: 198:                 }
  2702  0546  3001               	movlw	1
  2703  0547  07BB               	addwf	main@event_idx^(0+384),f
  2704  0548  1803               	skipnc
  2705  0549  0ABC               	incf	(main@event_idx+1)^(0+384),f
  2706  054A  3000               	movlw	0
  2707  054B  07BC               	addwf	(main@event_idx+1)^(0+384),f
  2708  054C  300A               	movlw	10
  2709  054D  063B               	xorwf	main@event_idx^(0+384),w
  2710  054E  043C               	iorwf	(main@event_idx+1)^(0+384),w
  2711  054F  1D03               	btfss	3,2
  2712  0550  2D52               	goto	u6631
  2713  0551  2D53               	goto	u6630
  2714  0552                     u6631:
  2715  0552  2D55               	goto	l4907
  2716  0553                     u6630:
  2717  0553                     l4905:
  2718                           
  2719                           ;main.c: 199:             };main.c: 200: 
  2720  0553  01BB               	clrf	main@event_idx^(0+384)
  2721  0554  01BC               	clrf	(main@event_idx+1)^(0+384)
  2722  0555                     l4907:
  2723                           
  2724                           ;main.c: 205:                 {
  2725  0555  3002               	movlw	2
  2726  0556  063D               	xorwf	main@key_state^(0+384),w
  2727  0557  1D03               	btfss	3,2
  2728  0558  2D5A               	goto	u6641
  2729  0559  2D5B               	goto	u6640
  2730  055A                     u6641:
  2731  055A  2DCF               	goto	l4925
  2732  055B                     u6640:
  2733  055B                     l4909:
  2734                           
  2735                           ;main.c: 206:                     gear_idx = 6;;main.c: 207:                 }
  2736  055B  3001               	movlw	1
  2737  055C  1683               	bsf	3,5	;RP0=1, select bank1
  2738  055D  1303               	bcf	3,6	;RP1=0, select bank1
  2739  055E  00EA               	movwf	main@gear_flag^(0+128)
  2740  055F  3000               	movlw	0
  2741  0560  00EB               	movwf	(main@gear_flag^(0+128)+1)
  2742  0561                     l4911:
  2743                           
  2744                           ;main.c: 208:                 clcd_print(gear[gear_idx], (0xC0 + 10));
  2745  0561  3001               	movlw	1
  2746  0562  1683               	bsf	3,5	;RP0=1, select bank3
  2747  0563  1703               	bsf	3,6	;RP1=1, select bank3
  2748  0564  07B7               	addwf	main@gear_idx^(0+384),f
  2749  0565  1803               	skipnc
  2750  0566  0AB8               	incf	(main@gear_idx+1)^(0+384),f
  2751  0567  3000               	movlw	0
  2752  0568  07B8               	addwf	(main@gear_idx+1)^(0+384),f
  2753  0569  3007               	movlw	7
  2754  056A  0637               	xorwf	main@gear_idx^(0+384),w
  2755  056B  0438               	iorwf	(main@gear_idx+1)^(0+384),w
  2756  056C  1D03               	btfss	3,2
  2757  056D  2D6F               	goto	u6651
  2758  056E  2D70               	goto	u6650
  2759  056F                     u6651:
  2760  056F  2D72               	goto	l4915
  2761  0570                     u6650:
  2762  0570                     l4913:
  2763                           
  2764                           ;main.c: 209: ;main.c: 210:                 write_external_eeprom(event_idx, addr[event_
      +                          idx],gear[gear_idx] );
  2765  0570  01B7               	clrf	main@gear_idx^(0+384)
  2766  0571  01B8               	clrf	(main@gear_idx+1)^(0+384)
  2767  0572                     l4915:
  2768                           
  2769                           ;main.c: 212:                 if(++event_idx == 10)
  2770  0572  0837               	movf	main@gear_idx^(0+384),w
  2771  0573  1283               	bcf	3,5	;RP0=0, select bank0
  2772  0574  1303               	bcf	3,6	;RP1=0, select bank0
  2773  0575  00EB               	movwf	??_main
  2774  0576  076B               	addwf	??_main,w
  2775  0577  3ED8               	addlw	(low (main@gear| 0))& (0+255)
  2776  0578  0084               	movwf	4
  2777  0579  1383               	bcf	3,7	;select IRP bank1
  2778  057A  0800               	movf	0,w
  2779  057B  00F6               	movwf	clcd_print@str
  2780  057C  0A84               	incf	4,f
  2781  057D  0800               	movf	0,w
  2782  057E  0384               	decf	4,f
  2783  057F  00F7               	movwf	clcd_print@str+1
  2784  0580  30CA               	movlw	202
  2785  0581  00ED               	movwf	??_main+2
  2786  0582  086D               	movf	??_main+2,w
  2787  0583  00F8               	movwf	clcd_print@addr
  2788  0584  160A  158A  27D1  120A  118A  	fcall	_clcd_print
  2789  0589                     l4917:
  2790                           
  2791                           ;main.c: 214:                     event_idx = 0;
  2792  0589  1683               	bsf	3,5	;RP0=1, select bank3
  2793  058A  1703               	bsf	3,6	;RP1=1, select bank3
  2794  058B  083C               	movf	(main@event_idx+1)^(0+384),w
  2795  058C  1283               	bcf	3,5	;RP0=0, select bank0
  2796  058D  1303               	bcf	3,6	;RP1=0, select bank0
  2797  058E  00A1               	movwf	write_external_eeprom@event_idx+1
  2798  058F  1683               	bsf	3,5	;RP0=1, select bank3
  2799  0590  1703               	bsf	3,6	;RP1=1, select bank3
  2800  0591  083B               	movf	main@event_idx^(0+384),w
  2801  0592  1283               	bcf	3,5	;RP0=0, select bank0
  2802  0593  1303               	bcf	3,6	;RP1=0, select bank0
  2803  0594  00A0               	movwf	write_external_eeprom@event_idx
  2804  0595  1683               	bsf	3,5	;RP0=1, select bank3
  2805  0596  1703               	bsf	3,6	;RP1=1, select bank3
  2806  0597  083B               	movf	main@event_idx^(0+384),w
  2807  0598  1283               	bcf	3,5	;RP0=0, select bank0
  2808  0599  1303               	bcf	3,6	;RP1=0, select bank0
  2809  059A  00EB               	movwf	??_main
  2810  059B  076B               	addwf	??_main,w
  2811  059C  3EC4               	addlw	(low (main@addr| 0))& (0+255)
  2812  059D  0084               	movwf	4
  2813  059E  1383               	bcf	3,7	;select IRP bank1
  2814  059F  0800               	movf	0,w
  2815  05A0  00A2               	movwf	write_external_eeprom@addr
  2816  05A1  0A84               	incf	4,f
  2817  05A2  0800               	movf	0,w
  2818  05A3  00A3               	movwf	write_external_eeprom@addr+1
  2819  05A4  1683               	bsf	3,5	;RP0=1, select bank3
  2820  05A5  1703               	bsf	3,6	;RP1=1, select bank3
  2821  05A6  0837               	movf	main@gear_idx^(0+384),w
  2822  05A7  1283               	bcf	3,5	;RP0=0, select bank0
  2823  05A8  1303               	bcf	3,6	;RP1=0, select bank0
  2824  05A9  00EC               	movwf	??_main+1
  2825  05AA  076C               	addwf	??_main+1,w
  2826  05AB  3ED8               	addlw	(low (main@gear| 0))& (0+255)
  2827  05AC  0084               	movwf	4
  2828  05AD  0800               	movf	0,w
  2829  05AE  00A4               	movwf	write_external_eeprom@gear
  2830  05AF  0A84               	incf	4,f
  2831  05B0  0800               	movf	0,w
  2832  05B1  0384               	decf	4,f
  2833  05B2  00A5               	movwf	write_external_eeprom@gear+1
  2834  05B3  160A  118A  2733  120A  118A  	fcall	_write_external_eeprom
  2835  05B8                     l4919:
  2836                           
  2837                           ;main.c: 215:                 }
  2838  05B8  3001               	movlw	1
  2839  05B9  1683               	bsf	3,5	;RP0=1, select bank3
  2840  05BA  1703               	bsf	3,6	;RP1=1, select bank3
  2841  05BB  07B5               	addwf	main@event_count^(0+384),f
  2842  05BC  1803               	skipnc
  2843  05BD  0AB6               	incf	(main@event_count+1)^(0+384),f
  2844  05BE  3000               	movlw	0
  2845  05BF  07B6               	addwf	(main@event_count+1)^(0+384),f
  2846  05C0                     l4921:
  2847                           
  2848                           ;main.c: 216:             }
  2849  05C0  3001               	movlw	1
  2850  05C1  07BB               	addwf	main@event_idx^(0+384),f
  2851  05C2  1803               	skipnc
  2852  05C3  0ABC               	incf	(main@event_idx+1)^(0+384),f
  2853  05C4  3000               	movlw	0
  2854  05C5  07BC               	addwf	(main@event_idx+1)^(0+384),f
  2855  05C6  300A               	movlw	10
  2856  05C7  063B               	xorwf	main@event_idx^(0+384),w
  2857  05C8  043C               	iorwf	(main@event_idx+1)^(0+384),w
  2858  05C9  1D03               	btfss	3,2
  2859  05CA  2DCC               	goto	u6661
  2860  05CB  2DCD               	goto	u6660
  2861  05CC                     u6661:
  2862  05CC  2DCF               	goto	l4925
  2863  05CD                     u6660:
  2864  05CD                     l4923:
  2865                           
  2866                           ;main.c: 217:         };main.c: 218: 
  2867  05CD  01BB               	clrf	main@event_idx^(0+384)
  2868  05CE  01BC               	clrf	(main@event_idx+1)^(0+384)
  2869  05CF                     l4925:
  2870                           
  2871                           ;main.c: 222:             clcd_print(" Enter Password ", (0x80 + 0));
  2872  05CF  3003               	movlw	3
  2873  05D0  063D               	xorwf	main@key_state^(0+384),w
  2874  05D1  1D03               	btfss	3,2
  2875  05D2  2DD4               	goto	u6671
  2876  05D3  2DD5               	goto	u6670
  2877  05D4                     u6671:
  2878  05D4  2BE6               	goto	l4859
  2879  05D5                     u6670:
  2880  05D5                     l4927:
  2881                           
  2882                           ;main.c: 223:             if(password_flag == 0 && check_password() != 1);main.c: 224:  
      +                                     {
  2883  05D5  3001               	movlw	1
  2884  05D6  1683               	bsf	3,5	;RP0=1, select bank1
  2885  05D7  1303               	bcf	3,6	;RP1=0, select bank1
  2886  05D8  00EA               	movwf	main@gear_flag^(0+128)
  2887  05D9  3000               	movlw	0
  2888  05DA  00EB               	movwf	(main@gear_flag^(0+128)+1)
  2889                           
  2890                           ;main.c: 225:                 clcd_print(" Wrong Password ", (0x80 + 0));
  2891  05DB  30FF               	movlw	255
  2892  05DC  1683               	bsf	3,5	;RP0=1, select bank3
  2893  05DD  1703               	bsf	3,6	;RP1=1, select bank3
  2894  05DE  07B7               	addwf	main@gear_idx^(0+384),f
  2895  05DF  1803               	skipnc
  2896  05E0  0AB8               	incf	(main@gear_idx+1)^(0+384),f
  2897  05E1  30FF               	movlw	255
  2898  05E2  07B8               	addwf	(main@gear_idx+1)^(0+384),f
  2899  05E3  1FB8               	btfss	(main@gear_idx+1)^(0+384),7
  2900  05E4  2DE8               	goto	u6681
  2901  05E5  120A  158A  2800   	goto	u6680
  2902  05E8                     u6681:
  2903  05E8  120A  158A  2804   	goto	l4931
  2904                           
  2905                           	psect	text1
  2906  1733                     __ptext1:	
  2907 ;; *************** function _write_external_eeprom *****************
  2908 ;; Defined at:
  2909 ;;		line 118 in file "main.c"
  2910 ;; Parameters:    Size  Location     Type
  2911 ;;  event_idx       2    0[BANK0 ] unsigned int 
  2912 ;;  addr            2    2[BANK0 ] unsigned int 
  2913 ;;  gear            2    4[BANK0 ] PTR unsigned char 
  2914 ;;		 -> STR_14(3), STR_8(3), STR_7(3), STR_6(3), 
  2915 ;;		 -> STR_5(3), STR_4(3), STR_3(3), STR_2(3), 
  2916 ;; Auto vars:     Size  Location     Type
  2917 ;;  i               1    8[COMMON] unsigned char 
  2918 ;; Return value:  Size  Location     Type
  2919 ;;                  1    wreg      void 
  2920 ;; Registers used:
  2921 ;;		wreg, fsr0l, fsr0h, status,2, status,0, btemp+1, pclath, cstack
  2922 ;; Tracked objects:
  2923 ;;		On entry : 0/0
  2924 ;;		On exit  : 0/0
  2925 ;;		Unchanged: 0/0
  2926 ;; Data sizes:     COMMON   BANK0   BANK1   BANK3   BANK2
  2927 ;;      Params:         0       6       0       0       0
  2928 ;;      Locals:         1       0       0       0       0
  2929 ;;      Temps:          3       0       0       0       0
  2930 ;;      Totals:         4       6       0       0       0
  2931 ;;Total ram usage:       10 bytes
  2932 ;; Hardware stack levels used: 1
  2933 ;; Hardware stack levels required when called: 4
  2934 ;; This function calls:
  2935 ;;		_write_24c02
  2936 ;; This function is called by:
  2937 ;;		_main
  2938 ;; This function uses a non-reentrant model
  2939 ;;
  2940                           
  2941  1733                     _write_external_eeprom:	
  2942                           ;psect for function _write_external_eeprom
  2943                           
  2944  1733                     l4421:	
  2945                           ;incstack = 0
  2946                           ; Regs used in _write_external_eeprom: [wreg-fsr0h+status,2+status,0+btemp+1+pclath+csta
      +                          ck]
  2947                           
  2948                           
  2949                           ;main.c: 118:     addr++;;main.c: 119:     write_24c02(addr, buff[0] );;main.c: 121:    
      +                           write_24c02(addr, buff[1] );
  2950  1733  1283               	bcf	3,5	;RP0=0, select bank0
  2951  1734  1303               	bcf	3,6	;RP1=0, select bank0
  2952  1735  0820               	movf	write_external_eeprom@event_idx,w
  2953  1736  3E30               	addlw	48
  2954  1737  00F5               	movwf	??_write_external_eeprom
  2955  1738  0875               	movf	??_write_external_eeprom,w
  2956  1739  00F3               	movwf	write_24c02@data
  2957  173A  0822               	movf	write_external_eeprom@addr,w
  2958  173B  160A  158A  2633  160A  118A  	fcall	_write_24c02
  2959  1740                     l4423:
  2960                           
  2961                           ;main.c: 122: }
  2962  1740  3001               	movlw	1
  2963  1741  1283               	bcf	3,5	;RP0=0, select bank0
  2964  1742  1303               	bcf	3,6	;RP1=0, select bank0
  2965  1743  07A2               	addwf	write_external_eeprom@addr,f
  2966  1744  1803               	skipnc
  2967  1745  0AA3               	incf	write_external_eeprom@addr+1,f
  2968  1746  3000               	movlw	0
  2969  1747  07A3               	addwf	write_external_eeprom@addr+1,f
  2970  1748                     l4425:
  2971                           
  2972                           ;main.c: 123: 
  2973  1748  305F               	movlw	95
  2974  1749  00F5               	movwf	??_write_external_eeprom
  2975  174A  0875               	movf	??_write_external_eeprom,w
  2976  174B  00F3               	movwf	write_24c02@data
  2977  174C  0822               	movf	write_external_eeprom@addr,w
  2978  174D  160A  158A  2633  160A  118A  	fcall	_write_24c02
  2979                           
  2980                           ;main.c: 124: void main(void) {
  2981  1752  3001               	movlw	1
  2982  1753  1283               	bcf	3,5	;RP0=0, select bank0
  2983  1754  1303               	bcf	3,6	;RP1=0, select bank0
  2984  1755  07A2               	addwf	write_external_eeprom@addr,f
  2985  1756  1803               	skipnc
  2986  1757  0AA3               	incf	write_external_eeprom@addr+1,f
  2987  1758  3000               	movlw	0
  2988  1759  07A3               	addwf	write_external_eeprom@addr+1,f
  2989  175A                     l4427:
  2990                           
  2991                           ;main.c: 126:     unsigned char key_state,key_level;
  2992  175A  01F8               	clrf	write_external_eeprom@i
  2993  175B                     l4433:
  2994                           
  2995                           ;main.c: 127:     unsigned char clock_reg[3];;main.c: 128: 
  2996  175B  0878               	movf	write_external_eeprom@i,w
  2997  175C  3EE1               	addlw	(low (_time| (0+256)))& (0+255)
  2998  175D  0084               	movwf	4
  2999  175E  1783               	bsf	3,7	;select IRP bank3
  3000  175F  0800               	movf	0,w
  3001  1760  00F5               	movwf	??_write_external_eeprom
  3002  1761  0875               	movf	??_write_external_eeprom,w
  3003  1762  00F3               	movwf	write_24c02@data
  3004  1763  0822               	movf	write_external_eeprom@addr,w
  3005  1764  160A  158A  2633  160A  118A  	fcall	_write_24c02
  3006  1769                     l4435:
  3007                           
  3008                           ;main.c: 129: 
  3009  1769  3001               	movlw	1
  3010  176A  1283               	bcf	3,5	;RP0=0, select bank0
  3011  176B  1303               	bcf	3,6	;RP1=0, select bank0
  3012  176C  07A2               	addwf	write_external_eeprom@addr,f
  3013  176D  1803               	skipnc
  3014  176E  0AA3               	incf	write_external_eeprom@addr+1,f
  3015  176F  3000               	movlw	0
  3016  1770  07A3               	addwf	write_external_eeprom@addr+1,f
  3017  1771                     l4437:
  3018                           
  3019                           ;main.c: 130:     char *gear[7] = {"G1","G2","G3","G4","G5","GR","GN"};
  3020  1771  3001               	movlw	1
  3021  1772  00F5               	movwf	??_write_external_eeprom
  3022  1773  0875               	movf	??_write_external_eeprom,w
  3023  1774  07F8               	addwf	write_external_eeprom@i,f
  3024  1775                     l4439:
  3025  1775  3008               	movlw	8
  3026  1776  0278               	subwf	write_external_eeprom@i,w
  3027  1777  1C03               	skipc
  3028  1778  2F7A               	goto	u5621
  3029  1779  2F7B               	goto	u5620
  3030  177A                     u5621:
  3031  177A  2F5B               	goto	l4433
  3032  177B                     u5620:
  3033  177B                     l4441:
  3034                           
  3035                           ;main.c: 132:     write_24c02(0x04, org_password);
  3036  177B  3020               	movlw	32
  3037  177C  00F5               	movwf	??_write_external_eeprom
  3038  177D  0875               	movf	??_write_external_eeprom,w
  3039  177E  00F3               	movwf	write_24c02@data
  3040  177F  0822               	movf	write_external_eeprom@addr,w
  3041  1780  160A  158A  2633  160A  118A  	fcall	_write_24c02
  3042  1785                     l4443:
  3043                           
  3044                           ;main.c: 133:     unsigned int addr[10] = {0x10, 0x20, 0x30, 0x40, 0x50, 0x60, 0x70, 0x8
      +                          0, 0x90, 0xA0};
  3045  1785  3001               	movlw	1
  3046  1786  1283               	bcf	3,5	;RP0=0, select bank0
  3047  1787  1303               	bcf	3,6	;RP1=0, select bank0
  3048  1788  07A2               	addwf	write_external_eeprom@addr,f
  3049  1789  1803               	skipnc
  3050  178A  0AA3               	incf	write_external_eeprom@addr+1,f
  3051  178B  3000               	movlw	0
  3052  178C  07A3               	addwf	write_external_eeprom@addr+1,f
  3053  178D                     l4445:
  3054                           
  3055                           ;main.c: 134:     unsigned int event_count = 0,event_idx = 0;
  3056  178D  0825               	movf	write_external_eeprom@gear+1,w
  3057  178E  00FF               	movwf	btemp+1
  3058  178F  0824               	movf	write_external_eeprom@gear,w
  3059  1790  0084               	movwf	4
  3060  1791  160A  158A  2000  160A  118A  	fcall	stringtab
  3061  1796  00F5               	movwf	??_write_external_eeprom
  3062  1797  0875               	movf	??_write_external_eeprom,w
  3063  1798  00F3               	movwf	write_24c02@data
  3064  1799  0822               	movf	write_external_eeprom@addr,w
  3065  179A  160A  158A  2633  160A  118A  	fcall	_write_24c02
  3066  179F                     l4447:
  3067                           
  3068                           ;main.c: 135:     int gear_idx = -1,gear_flag = 0,menu_flag = 0,menu_select = 0 ,passwor
      +                          d_flag = 0 ;
  3069  179F  3001               	movlw	1
  3070  17A0  1283               	bcf	3,5	;RP0=0, select bank0
  3071  17A1  1303               	bcf	3,6	;RP1=0, select bank0
  3072  17A2  07A2               	addwf	write_external_eeprom@addr,f
  3073  17A3  1803               	skipnc
  3074  17A4  0AA3               	incf	write_external_eeprom@addr+1,f
  3075  17A5  3000               	movlw	0
  3076  17A6  07A3               	addwf	write_external_eeprom@addr+1,f
  3077  17A7                     l4449:
  3078                           
  3079                           ;main.c: 136: 
  3080  17A7  3001               	movlw	1
  3081  17A8  00F5               	movwf	??_write_external_eeprom
  3082  17A9  3000               	movlw	0
  3083  17AA  00F6               	movwf	??_write_external_eeprom+1
  3084  17AB  0875               	movf	??_write_external_eeprom,w
  3085  17AC  0724               	addwf	write_external_eeprom@gear,w
  3086  17AD  0084               	movwf	4
  3087  17AE  0876               	movf	??_write_external_eeprom+1,w
  3088  17AF  1803               	skipnc
  3089  17B0  0A76               	incf	??_write_external_eeprom+1,w
  3090  17B1  0725               	addwf	write_external_eeprom@gear+1,w
  3091  17B2  00FF               	movwf	btemp+1
  3092  17B3  160A  158A  2000  160A  118A  	fcall	stringtab
  3093  17B8  00F7               	movwf	??_write_external_eeprom+2
  3094  17B9  0877               	movf	??_write_external_eeprom+2,w
  3095  17BA  00F3               	movwf	write_24c02@data
  3096  17BB  0822               	movf	write_external_eeprom@addr,w
  3097  17BC  160A  158A  2633  160A  118A  	fcall	_write_24c02
  3098  17C1                     l4451:
  3099                           
  3100                           ;main.c: 137:     while (1) {
  3101  17C1  3001               	movlw	1
  3102  17C2  1283               	bcf	3,5	;RP0=0, select bank0
  3103  17C3  1303               	bcf	3,6	;RP1=0, select bank0
  3104  17C4  07A2               	addwf	write_external_eeprom@addr,f
  3105  17C5  1803               	skipnc
  3106  17C6  0AA3               	incf	write_external_eeprom@addr+1,f
  3107  17C7  3000               	movlw	0
  3108  17C8  07A3               	addwf	write_external_eeprom@addr+1,f
  3109  17C9                     l4453:
  3110                           
  3111                           ;main.c: 138:         clcd_print("Time      G   SP", (0x80 + 0));
  3112  17C9  3020               	movlw	32
  3113  17CA  00F5               	movwf	??_write_external_eeprom
  3114  17CB  0875               	movf	??_write_external_eeprom,w
  3115  17CC  00F3               	movwf	write_24c02@data
  3116  17CD  0822               	movf	write_external_eeprom@addr,w
  3117  17CE  160A  158A  2633  160A  118A  	fcall	_write_24c02
  3118                           
  3119                           ;main.c: 139:         key_state = read_matrix_keypad(1);
  3120  17D3  3001               	movlw	1
  3121  17D4  1283               	bcf	3,5	;RP0=0, select bank0
  3122  17D5  1303               	bcf	3,6	;RP1=0, select bank0
  3123  17D6  07A2               	addwf	write_external_eeprom@addr,f
  3124  17D7  1803               	skipnc
  3125  17D8  0AA3               	incf	write_external_eeprom@addr+1,f
  3126  17D9  3000               	movlw	0
  3127  17DA  07A3               	addwf	write_external_eeprom@addr+1,f
  3128  17DB                     l4455:
  3129                           
  3130                           ;main.c: 140:         key_level = read_matrix_keypad(0);
  3131  17DB  1683               	bsf	3,5	;RP0=1, select bank3
  3132  17DC  1703               	bsf	3,6	;RP1=1, select bank3
  3133  17DD  086A               	movf	_buff^(0+384),w
  3134  17DE  00F5               	movwf	??_write_external_eeprom
  3135  17DF  0875               	movf	??_write_external_eeprom,w
  3136  17E0  00F3               	movwf	write_24c02@data
  3137  17E1  1283               	bcf	3,5	;RP0=0, select bank0
  3138  17E2  1303               	bcf	3,6	;RP1=0, select bank0
  3139  17E3  0822               	movf	write_external_eeprom@addr,w
  3140  17E4  160A  158A  2633  160A  118A  	fcall	_write_24c02
  3141  17E9                     l4457:
  3142                           
  3143                           ;main.c: 141: 
  3144  17E9  3001               	movlw	1
  3145  17EA  1283               	bcf	3,5	;RP0=0, select bank0
  3146  17EB  1303               	bcf	3,6	;RP1=0, select bank0
  3147  17EC  07A2               	addwf	write_external_eeprom@addr,f
  3148  17ED  1803               	skipnc
  3149  17EE  0AA3               	incf	write_external_eeprom@addr+1,f
  3150  17EF  3000               	movlw	0
  3151  17F0  07A3               	addwf	write_external_eeprom@addr+1,f
  3152                           
  3153                           ;main.c: 142:         unsigned int adc_reg_val_speed;
  3154  17F1  1683               	bsf	3,5	;RP0=1, select bank3
  3155  17F2  1703               	bsf	3,6	;RP1=1, select bank3
  3156  17F3  086B               	movf	(_buff^(0+384)+1),w
  3157  17F4  00F5               	movwf	??_write_external_eeprom
  3158  17F5  0875               	movf	??_write_external_eeprom,w
  3159  17F6  00F3               	movwf	write_24c02@data
  3160  17F7  1283               	bcf	3,5	;RP0=0, select bank0
  3161  17F8  1303               	bcf	3,6	;RP1=0, select bank0
  3162  17F9  0822               	movf	write_external_eeprom@addr,w
  3163  17FA  160A  158A  2633  160A  118A  	fcall	_write_24c02
  3164  17FF                     l236:
  3165  17FF  0008               	return
  3166  1800                     __end_of_write_external_eeprom:
  3167                           
  3168                           	psect	text2
  3169  1E33                     __ptext2:	
  3170 ;; *************** function _write_24c02 *****************
  3171 ;; Defined at:
  3172 ;;		line 27 in file "a24c02.c"
  3173 ;; Parameters:    Size  Location     Type
  3174 ;;  addr            1    wreg     unsigned char 
  3175 ;;  data            1    3[COMMON] unsigned char 
  3176 ;; Auto vars:     Size  Location     Type
  3177 ;;  addr            1    4[COMMON] unsigned char 
  3178 ;; Return value:  Size  Location     Type
  3179 ;;                  1    wreg      void 
  3180 ;; Registers used:
  3181 ;;		wreg, status,2, status,0, pclath, cstack
  3182 ;; Tracked objects:
  3183 ;;		On entry : 0/0
  3184 ;;		On exit  : 0/0
  3185 ;;		Unchanged: 0/0
  3186 ;; Data sizes:     COMMON   BANK0   BANK1   BANK3   BANK2
  3187 ;;      Params:         1       0       0       0       0
  3188 ;;      Locals:         1       0       0       0       0
  3189 ;;      Temps:          0       0       0       0       0
  3190 ;;      Totals:         2       0       0       0       0
  3191 ;;Total ram usage:        2 bytes
  3192 ;; Hardware stack levels used: 1
  3193 ;; Hardware stack levels required when called: 3
  3194 ;; This function calls:
  3195 ;;		_i2c_start
  3196 ;;		_i2c_stop
  3197 ;;		_i2c_write
  3198 ;; This function is called by:
  3199 ;;		_write_external_eeprom
  3200 ;;		_main
  3201 ;;		_write_str_24c02
  3202 ;; This function uses a non-reentrant model
  3203 ;;
  3204                           
  3205  1E33                     _write_24c02:	
  3206                           ;psect for function _write_24c02
  3207                           
  3208                           
  3209                           ;incstack = 0
  3210                           ; Regs used in _write_24c02: [wreg+status,2+status,0+pclath+cstack]
  3211                           ;write_24c02@addr stored from wreg
  3212  1E33  00F4               	movwf	write_24c02@addr
  3213  1E34                     l4143:
  3214                           
  3215                           ;a24c02.c: 27: void write_24c02(unsigned char addr, unsigned char data);a24c02.c: 28: {;
      +                          a24c02.c: 29:     i2c_start();
  3216  1E34  160A  158A  2573  160A  158A  	fcall	_i2c_start
  3217                           
  3218                           ;a24c02.c: 30:     i2c_write(0xA0);
  3219  1E39  30A0               	movlw	160
  3220  1E3A  160A  158A  259A  160A  158A  	fcall	_i2c_write
  3221                           
  3222                           ;a24c02.c: 31:     i2c_write(addr);
  3223  1E3F  0874               	movf	write_24c02@addr,w
  3224  1E40  160A  158A  259A  160A  158A  	fcall	_i2c_write
  3225                           
  3226                           ;a24c02.c: 32:     i2c_write(data);
  3227  1E45  0873               	movf	write_24c02@data,w
  3228  1E46  160A  158A  259A  160A  158A  	fcall	_i2c_write
  3229                           
  3230                           ;a24c02.c: 33:     i2c_stop();
  3231  1E4B  160A  158A  257C  160A  158A  	fcall	_i2c_stop
  3232  1E50                     l16:
  3233  1E50  0008               	return
  3234  1E51                     __end_of_write_24c02:
  3235                           
  3236                           	psect	text3
  3237  1ED8                     __ptext3:	
  3238 ;; *************** function _uart_puts *****************
  3239 ;; Defined at:
  3240 ;;		line 51 in file "uart.c"
  3241 ;; Parameters:    Size  Location     Type
  3242 ;;  s               2    3[COMMON] PTR const unsigned char 
  3243 ;;		 -> main@log_display_316(19), STR_58(22), 
  3244 ;; Auto vars:     Size  Location     Type
  3245 ;;		None
  3246 ;; Return value:  Size  Location     Type
  3247 ;;                  1    wreg      void 
  3248 ;; Registers used:
  3249 ;;		wreg, fsr0l, fsr0h, status,2, status,0, btemp+1, pclath, cstack
  3250 ;; Tracked objects:
  3251 ;;		On entry : 0/0
  3252 ;;		On exit  : 0/0
  3253 ;;		Unchanged: 0/0
  3254 ;; Data sizes:     COMMON   BANK0   BANK1   BANK3   BANK2
  3255 ;;      Params:         2       0       0       0       0
  3256 ;;      Locals:         0       0       0       0       0
  3257 ;;      Temps:          0       0       0       0       0
  3258 ;;      Totals:         2       0       0       0       0
  3259 ;;Total ram usage:        2 bytes
  3260 ;; Hardware stack levels used: 1
  3261 ;; Hardware stack levels required when called: 2
  3262 ;; This function calls:
  3263 ;;		_uart_putchar
  3264 ;; This function is called by:
  3265 ;;		_main
  3266 ;; This function uses a non-reentrant model
  3267 ;;
  3268                           
  3269  1ED8                     _uart_puts:	
  3270                           ;psect for function _uart_puts
  3271                           
  3272  1ED8                     l4459:	
  3273                           ;incstack = 0
  3274                           ; Regs used in _uart_puts: [wreg-fsr0h+status,2+status,0+btemp+1+pclath+cstack]
  3275                           
  3276                           
  3277                           ;uart.c: 51: void uart_puts(const char *s);uart.c: 52: {;uart.c: 53:     while (*s)
  3278  1ED8  2EED               	goto	l4465
  3279  1ED9                     l4461:
  3280                           
  3281                           ;uart.c: 54:     {;uart.c: 55:         uart_putchar(*s++);
  3282  1ED9  0874               	movf	uart_puts@s+1,w
  3283  1EDA  00FF               	movwf	btemp+1
  3284  1EDB  0873               	movf	uart_puts@s,w
  3285  1EDC  0084               	movwf	4
  3286  1EDD  160A  158A  2000  160A  158A  	fcall	stringtab
  3287  1EE2  160A  158A  25B0  160A  158A  	fcall	_uart_putchar
  3288  1EE7                     l4463:
  3289  1EE7  3001               	movlw	1
  3290  1EE8  07F3               	addwf	uart_puts@s,f
  3291  1EE9  1803               	skipnc
  3292  1EEA  0AF4               	incf	uart_puts@s+1,f
  3293  1EEB  3000               	movlw	0
  3294  1EEC  07F4               	addwf	uart_puts@s+1,f
  3295  1EED                     l4465:
  3296                           
  3297                           ;uart.c: 53:     while (*s)
  3298  1EED  0874               	movf	uart_puts@s+1,w
  3299  1EEE  1283               	bcf	3,5	;RP0=0, select bank0
  3300  1EEF  1303               	bcf	3,6	;RP1=0, select bank0
  3301  1EF0  00FF               	movwf	btemp+1
  3302  1EF1  0873               	movf	uart_puts@s,w
  3303  1EF2  0084               	movwf	4
  3304  1EF3  160A  158A  2000  160A  158A  	fcall	stringtab
  3305  1EF8  3A00               	xorlw	0
  3306  1EF9  1D03               	skipz
  3307  1EFA  2EFC               	goto	u5631
  3308  1EFB  2EFD               	goto	u5630
  3309  1EFC                     u5631:
  3310  1EFC  2ED9               	goto	l4461
  3311  1EFD                     u5630:
  3312  1EFD                     l477:
  3313  1EFD  0008               	return
  3314  1EFE                     __end_of_uart_puts:
  3315                           
  3316                           	psect	text4
  3317  1DB0                     __ptext4:	
  3318 ;; *************** function _uart_putchar *****************
  3319 ;; Defined at:
  3320 ;;		line 36 in file "uart.c"
  3321 ;; Parameters:    Size  Location     Type
  3322 ;;  data            1    wreg     unsigned char 
  3323 ;; Auto vars:     Size  Location     Type
  3324 ;;  data            1    2[COMMON] unsigned char 
  3325 ;; Return value:  Size  Location     Type
  3326 ;;                  1    wreg      void 
  3327 ;; Registers used:
  3328 ;;		wreg
  3329 ;; Tracked objects:
  3330 ;;		On entry : 0/0
  3331 ;;		On exit  : 0/0
  3332 ;;		Unchanged: 0/0
  3333 ;; Data sizes:     COMMON   BANK0   BANK1   BANK3   BANK2
  3334 ;;      Params:         0       0       0       0       0
  3335 ;;      Locals:         1       0       0       0       0
  3336 ;;      Temps:          0       0       0       0       0
  3337 ;;      Totals:         1       0       0       0       0
  3338 ;;Total ram usage:        1 bytes
  3339 ;; Hardware stack levels used: 1
  3340 ;; Hardware stack levels required when called: 1
  3341 ;; This function calls:
  3342 ;;		Nothing
  3343 ;; This function is called by:
  3344 ;;		_uart_puts
  3345 ;; This function uses a non-reentrant model
  3346 ;;
  3347                           
  3348  1DB0                     _uart_putchar:	
  3349                           ;psect for function _uart_putchar
  3350                           
  3351                           
  3352                           ;incstack = 0
  3353                           ; Regs used in _uart_putchar: [wreg]
  3354                           ;uart_putchar@data stored from wreg
  3355  1DB0  00F2               	movwf	uart_putchar@data
  3356  1DB1                     l4229:
  3357                           
  3358                           ;uart.c: 36: void uart_putchar(unsigned char data);uart.c: 37: {;uart.c: 39:     TXREG =
      +                           data;
  3359  1DB1  0872               	movf	uart_putchar@data,w
  3360  1DB2  1283               	bcf	3,5	;RP0=0, select bank0
  3361  1DB3  1303               	bcf	3,6	;RP1=0, select bank0
  3362  1DB4  0099               	movwf	25	;volatile
  3363  1DB5                     l469:	
  3364                           ;uart.c: 45:     } while (TXIF != 1);
  3365                           
  3366  1DB5  1E0C               	btfss	12,4	;volatile
  3367  1DB6  2DB8               	goto	u5281
  3368  1DB7  2DB9               	goto	u5280
  3369  1DB8                     u5281:
  3370  1DB8  2DB5               	goto	l469
  3371  1DB9                     u5280:
  3372  1DB9                     l470:
  3373                           
  3374                           ;uart.c: 48:     TXIF = 0;
  3375  1DB9  120C               	bcf	12,4	;volatile
  3376  1DBA                     l471:
  3377  1DBA  0008               	return
  3378  1DBB                     __end_of_uart_putchar:
  3379                           
  3380                           	psect	text5
  3381  1E51                     __ptext5:	
  3382 ;; *************** function _read_adc *****************
  3383 ;; Defined at:
  3384 ;;		line 17 in file "adc.c"
  3385 ;; Parameters:    Size  Location     Type
  3386 ;;  channel         1    wreg     unsigned char 
  3387 ;; Auto vars:     Size  Location     Type
  3388 ;;  channel         1    5[COMMON] unsigned char 
  3389 ;;  adc_reg_val     2    6[COMMON] unsigned short 
  3390 ;; Return value:  Size  Location     Type
  3391 ;;                  2    2[COMMON] unsigned short 
  3392 ;; Registers used:
  3393 ;;		wreg, status,2, status,0
  3394 ;; Tracked objects:
  3395 ;;		On entry : 0/0
  3396 ;;		On exit  : 0/0
  3397 ;;		Unchanged: 0/0
  3398 ;; Data sizes:     COMMON   BANK0   BANK1   BANK3   BANK2
  3399 ;;      Params:         2       0       0       0       0
  3400 ;;      Locals:         3       0       0       0       0
  3401 ;;      Temps:          1       0       0       0       0
  3402 ;;      Totals:         6       0       0       0       0
  3403 ;;Total ram usage:        6 bytes
  3404 ;; Hardware stack levels used: 1
  3405 ;; Hardware stack levels required when called: 1
  3406 ;; This function calls:
  3407 ;;		Nothing
  3408 ;; This function is called by:
  3409 ;;		_main
  3410 ;; This function uses a non-reentrant model
  3411 ;;
  3412                           
  3413  1E51                     _read_adc:	
  3414                           ;psect for function _read_adc
  3415                           
  3416                           
  3417                           ;incstack = 0
  3418                           ; Regs used in _read_adc: [wreg+status,2+status,0]
  3419                           ;read_adc@channel stored from wreg
  3420  1E51  00F5               	movwf	read_adc@channel
  3421  1E52                     l4327:
  3422                           
  3423                           ;adc.c: 17: unsigned short read_adc(unsigned char channel);adc.c: 18: {;adc.c: 19:     u
      +                          nsigned short adc_reg_val;;adc.c: 22:     ADCON0 = (ADCON0 & 0xC7) | (channel << 3);
  3424  1E52  0875               	movf	read_adc@channel,w
  3425  1E53  00F4               	movwf	??_read_adc
  3426  1E54  3003               	movlw	3
  3427  1E55                     u5515:
  3428  1E55  1003               	clrc
  3429  1E56  0DF4               	rlf	??_read_adc,f
  3430  1E57  3EFF               	addlw	-1
  3431  1E58  1D03               	skipz
  3432  1E59  2E55               	goto	u5515
  3433  1E5A  1283               	bcf	3,5	;RP0=0, select bank0
  3434  1E5B  1303               	bcf	3,6	;RP1=0, select bank0
  3435  1E5C  081F               	movf	31,w	;volatile
  3436  1E5D  39C7               	andlw	199
  3437  1E5E  0474               	iorwf	??_read_adc,w
  3438  1E5F  009F               	movwf	31	;volatile
  3439  1E60                     l4329:
  3440                           
  3441                           ;adc.c: 25:     GO = 1;
  3442  1E60  151F               	bsf	31,2	;volatile
  3443  1E61                     l42:	
  3444                           ;adc.c: 27:     while (nDONE);
  3445                           
  3446  1E61  191F               	btfsc	31,2	;volatile
  3447  1E62  2E64               	goto	u5521
  3448  1E63  2E65               	goto	u5520
  3449  1E64                     u5521:
  3450  1E64  2E61               	goto	l42
  3451  1E65                     u5520:
  3452  1E65                     l4331:
  3453                           
  3454                           ;adc.c: 29:     adc_reg_val = (ADRESH << 8) | ADRESL;
  3455  1E65  081E               	movf	30,w	;volatile
  3456  1E66  00F7               	movwf	read_adc@adc_reg_val+1
  3457  1E67  1683               	bsf	3,5	;RP0=1, select bank1
  3458  1E68  1303               	bcf	3,6	;RP1=0, select bank1
  3459  1E69  081E               	movf	30,w	;volatile
  3460  1E6A  00F6               	movwf	read_adc@adc_reg_val
  3461                           
  3462                           ;adc.c: 31:     return adc_reg_val;
  3463  1E6B  0877               	movf	read_adc@adc_reg_val+1,w
  3464  1E6C  00F3               	movwf	?_read_adc+1
  3465  1E6D  0876               	movf	read_adc@adc_reg_val,w
  3466  1E6E  00F2               	movwf	?_read_adc
  3467  1E6F                     l45:
  3468  1E6F  0008               	return
  3469  1E70                     __end_of_read_adc:
  3470                           
  3471                           	psect	text6
  3472  1223                     __ptext6:	
  3473 ;; *************** function _init_config *****************
  3474 ;; Defined at:
  3475 ;;		line 64 in file "main.c"
  3476 ;; Parameters:    Size  Location     Type
  3477 ;;		None
  3478 ;; Auto vars:     Size  Location     Type
  3479 ;;		None
  3480 ;; Return value:  Size  Location     Type
  3481 ;;                  1    wreg      void 
  3482 ;; Registers used:
  3483 ;;		wreg, status,2, status,0, pclath, cstack
  3484 ;; Tracked objects:
  3485 ;;		On entry : 0/0
  3486 ;;		On exit  : 0/0
  3487 ;;		Unchanged: 0/0
  3488 ;; Data sizes:     COMMON   BANK0   BANK1   BANK3   BANK2
  3489 ;;      Params:         0       0       0       0       0
  3490 ;;      Locals:         0       0       0       0       0
  3491 ;;      Temps:          0       0       0       0       0
  3492 ;;      Totals:         0       0       0       0       0
  3493 ;;Total ram usage:        0 bytes
  3494 ;; Hardware stack levels used: 1
  3495 ;; Hardware stack levels required when called: 6
  3496 ;; This function calls:
  3497 ;;		_init_adc
  3498 ;;		_init_clcd
  3499 ;;		_init_ds1307
  3500 ;;		_init_i2c
  3501 ;;		_init_matrix_keypad
  3502 ;;		_init_timer0
  3503 ;;		_init_uart
  3504 ;; This function is called by:
  3505 ;;		_main
  3506 ;; This function uses a non-reentrant model
  3507 ;;
  3508                           
  3509  1223                     _init_config:	
  3510                           ;psect for function _init_config
  3511                           
  3512  1223                     l4363:	
  3513                           ;incstack = 0
  3514                           ; Regs used in _init_config: [wreg+status,2+status,0+pclath+cstack]
  3515                           
  3516                           
  3517                           ;main.c: 65:         {
  3518  1223  160A  158A  25A5  160A  118A  	fcall	_init_clcd
  3519                           
  3520                           ;main.c: 66:             break;
  3521  1228  160A  158A  25C8  160A  118A  	fcall	_init_matrix_keypad
  3522                           
  3523                           ;main.c: 67:         }
  3524  122D  3000               	movlw	0
  3525  122E  1283               	bcf	3,5	;RP0=0, select bank0
  3526  122F  1303               	bcf	3,6	;RP1=0, select bank0
  3527  1230  00A9               	movwf	init_i2c@baud+3
  3528  1231  3001               	movlw	1
  3529  1232  00A8               	movwf	init_i2c@baud+2
  3530  1233  3086               	movlw	134
  3531  1234  00A7               	movwf	init_i2c@baud+1
  3532  1235  30A0               	movlw	160
  3533  1236  00A6               	movwf	init_i2c@baud
  3534  1237  160A  118A  21F1  160A  118A  	fcall	_init_i2c
  3535                           
  3536                           ;main.c: 68:         if(key_state == 5)
  3537  123C  160A  158A  25FC  160A  118A  	fcall	_init_ds1307
  3538  1241                     l4365:
  3539                           
  3540                           ;main.c: 69:         {
  3541  1241  160A  158A  256C  160A  118A  	fcall	_init_adc
  3542  1246                     l4367:
  3543                           
  3544                           ;main.c: 70:             clcd_putch('*', (0xC0 + 6+count));
  3545  1246  3000               	movlw	0
  3546  1247  1283               	bcf	3,5	;RP0=0, select bank0
  3547  1248  1303               	bcf	3,6	;RP1=0, select bank0
  3548  1249  00A9               	movwf	init_uart@baud+3
  3549  124A  3000               	movlw	0
  3550  124B  00A8               	movwf	init_uart@baud+2
  3551  124C  3025               	movlw	37
  3552  124D  00A7               	movwf	init_uart@baud+1
  3553  124E  3080               	movlw	128
  3554  124F  00A6               	movwf	init_uart@baud
  3555  1250  160A  118A  21C1  160A  118A  	fcall	_init_uart
  3556  1255                     l4369:
  3557                           
  3558                           ;main.c: 71:             temp_password = (temp_password<<1) | 0;
  3559  1255  160A  158A  2585  160A  118A  	fcall	_init_timer0
  3560  125A                     l4371:
  3561                           
  3562                           ;main.c: 73:             continue;
  3563  125A  178B               	bsf	11,7	;volatile
  3564  125B                     l219:
  3565  125B  0008               	return
  3566  125C                     __end_of_init_config:
  3567                           
  3568                           	psect	text7
  3569  11C1                     __ptext7:	
  3570 ;; *************** function _init_uart *****************
  3571 ;; Defined at:
  3572 ;;		line 9 in file "uart.c"
  3573 ;; Parameters:    Size  Location     Type
  3574 ;;  baud            4    6[BANK0 ] unsigned long 
  3575 ;; Auto vars:     Size  Location     Type
  3576 ;;		None
  3577 ;; Return value:  Size  Location     Type
  3578 ;;                  1    wreg      void 
  3579 ;; Registers used:
  3580 ;;		wreg, status,2, status,0, pclath, cstack
  3581 ;; Tracked objects:
  3582 ;;		On entry : 0/0
  3583 ;;		On exit  : 0/0
  3584 ;;		Unchanged: 0/0
  3585 ;; Data sizes:     COMMON   BANK0   BANK1   BANK3   BANK2
  3586 ;;      Params:         0       4       0       0       0
  3587 ;;      Locals:         0       0       0       0       0
  3588 ;;      Temps:          0       4       0       0       0
  3589 ;;      Totals:         0       8       0       0       0
  3590 ;;Total ram usage:        8 bytes
  3591 ;; Hardware stack levels used: 1
  3592 ;; Hardware stack levels required when called: 2
  3593 ;; This function calls:
  3594 ;;		___lldiv
  3595 ;; This function is called by:
  3596 ;;		_init_config
  3597 ;; This function uses a non-reentrant model
  3598 ;;
  3599                           
  3600  11C1                     _init_uart:	
  3601                           ;psect for function _init_uart
  3602                           
  3603  11C1                     l4189:	
  3604                           ;incstack = 0
  3605                           ; Regs used in _init_uart: [wreg+status,2+status,0+pclath+cstack]
  3606                           
  3607                           
  3608                           ;uart.c: 9: void init_uart(unsigned long baud);uart.c: 10: {;uart.c: 12:     SPEN = 1;
  3609  11C1  1283               	bcf	3,5	;RP0=0, select bank0
  3610  11C2  1303               	bcf	3,6	;RP1=0, select bank0
  3611  11C3  1798               	bsf	24,7	;volatile
  3612                           
  3613                           ;uart.c: 15:     CREN = 1;
  3614  11C4  1618               	bsf	24,4	;volatile
  3615  11C5                     l4191:
  3616                           
  3617                           ;uart.c: 18:     SPBRG = (20000000 / (16 * baud)) - 1;
  3618  11C5  0826               	movf	init_uart@baud,w
  3619  11C6  00AA               	movwf	??_init_uart
  3620  11C7  0827               	movf	init_uart@baud+1,w
  3621  11C8  00AB               	movwf	??_init_uart+1
  3622  11C9  0828               	movf	init_uart@baud+2,w
  3623  11CA  00AC               	movwf	??_init_uart+2
  3624  11CB  0829               	movf	init_uart@baud+3,w
  3625  11CC  00AD               	movwf	??_init_uart+3
  3626  11CD  3004               	movlw	4
  3627  11CE                     u5235:
  3628  11CE  1003               	clrc
  3629  11CF  0DAA               	rlf	??_init_uart,f
  3630  11D0  0DAB               	rlf	??_init_uart+1,f
  3631  11D1  0DAC               	rlf	??_init_uart+2,f
  3632  11D2  0DAD               	rlf	??_init_uart+3,f
  3633  11D3                     u5230:
  3634  11D3  3EFF               	addlw	-1
  3635  11D4  1D03               	skipz
  3636  11D5  29CE               	goto	u5235
  3637  11D6  082D               	movf	??_init_uart+3,w
  3638  11D7  00F5               	movwf	___lldiv@divisor+3
  3639  11D8  082C               	movf	??_init_uart+2,w
  3640  11D9  00F4               	movwf	___lldiv@divisor+2
  3641  11DA  082B               	movf	??_init_uart+1,w
  3642  11DB  00F3               	movwf	___lldiv@divisor+1
  3643  11DC  082A               	movf	??_init_uart,w
  3644  11DD  00F2               	movwf	___lldiv@divisor
  3645  11DE  3001               	movlw	1
  3646  11DF  00F9               	movwf	___lldiv@dividend+3
  3647  11E0  3031               	movlw	49
  3648  11E1  00F8               	movwf	___lldiv@dividend+2
  3649  11E2  302D               	movlw	45
  3650  11E3  00F7               	movwf	___lldiv@dividend+1
  3651  11E4  3000               	movlw	0
  3652  11E5  00F6               	movwf	___lldiv@dividend
  3653  11E6  160A  118A  2368  160A  118A  	fcall	___lldiv
  3654  11EB  0872               	movf	?___lldiv,w
  3655  11EC  3EFF               	addlw	255
  3656  11ED  1683               	bsf	3,5	;RP0=1, select bank1
  3657  11EE  1303               	bcf	3,6	;RP1=0, select bank1
  3658  11EF  0099               	movwf	25	;volatile
  3659  11F0                     l459:
  3660  11F0  0008               	return
  3661  11F1                     __end_of_init_uart:
  3662                           
  3663                           	psect	text8
  3664  1D85                     __ptext8:	
  3665 ;; *************** function _init_timer0 *****************
  3666 ;; Defined at:
  3667 ;;		line 7 in file "timers.c"
  3668 ;; Parameters:    Size  Location     Type
  3669 ;;		None
  3670 ;; Auto vars:     Size  Location     Type
  3671 ;;		None
  3672 ;; Return value:  Size  Location     Type
  3673 ;;                  1    wreg      void 
  3674 ;; Registers used:
  3675 ;;		wreg
  3676 ;; Tracked objects:
  3677 ;;		On entry : 0/0
  3678 ;;		On exit  : 0/0
  3679 ;;		Unchanged: 0/0
  3680 ;; Data sizes:     COMMON   BANK0   BANK1   BANK3   BANK2
  3681 ;;      Params:         0       0       0       0       0
  3682 ;;      Locals:         0       0       0       0       0
  3683 ;;      Temps:          0       0       0       0       0
  3684 ;;      Totals:         0       0       0       0       0
  3685 ;;Total ram usage:        0 bytes
  3686 ;; Hardware stack levels used: 1
  3687 ;; Hardware stack levels required when called: 1
  3688 ;; This function calls:
  3689 ;;		Nothing
  3690 ;; This function is called by:
  3691 ;;		_init_config
  3692 ;; This function uses a non-reentrant model
  3693 ;;
  3694                           
  3695  1D85                     _init_timer0:	
  3696                           ;psect for function _init_timer0
  3697                           
  3698  1D85                     l4193:	
  3699                           ;incstack = 0
  3700                           ; Regs used in _init_timer0: [wreg]
  3701                           
  3702                           
  3703                           ;timers.c: 10:     T0CS = 0;
  3704  1D85  1683               	bsf	3,5	;RP0=1, select bank1
  3705  1D86  1303               	bcf	3,6	;RP1=0, select bank1
  3706  1D87  1281               	bcf	1,5	;volatile
  3707                           
  3708                           ;timers.c: 13:     PSA = 1;
  3709  1D88  1581               	bsf	1,3	;volatile
  3710  1D89                     l4195:
  3711                           
  3712                           ;timers.c: 15:     TMR0 = 6;
  3713  1D89  3006               	movlw	6
  3714  1D8A  1283               	bcf	3,5	;RP0=0, select bank0
  3715  1D8B  1303               	bcf	3,6	;RP1=0, select bank0
  3716  1D8C  0081               	movwf	1	;volatile
  3717  1D8D                     l4197:
  3718                           
  3719                           ;timers.c: 18:     TMR0IE = 1;
  3720  1D8D  168B               	bsf	11,5	;volatile
  3721  1D8E                     l442:
  3722  1D8E  0008               	return
  3723  1D8F                     __end_of_init_timer0:
  3724                           
  3725                           	psect	text9
  3726  1DC8                     __ptext9:	
  3727 ;; *************** function _init_matrix_keypad *****************
  3728 ;; Defined at:
  3729 ;;		line 9 in file "matrix_keypad.c"
  3730 ;; Parameters:    Size  Location     Type
  3731 ;;		None
  3732 ;; Auto vars:     Size  Location     Type
  3733 ;;		None
  3734 ;; Return value:  Size  Location     Type
  3735 ;;                  1    wreg      void 
  3736 ;; Registers used:
  3737 ;;		wreg, status,2
  3738 ;; Tracked objects:
  3739 ;;		On entry : 0/0
  3740 ;;		On exit  : 0/0
  3741 ;;		Unchanged: 0/0
  3742 ;; Data sizes:     COMMON   BANK0   BANK1   BANK3   BANK2
  3743 ;;      Params:         0       0       0       0       0
  3744 ;;      Locals:         0       0       0       0       0
  3745 ;;      Temps:          0       0       0       0       0
  3746 ;;      Totals:         0       0       0       0       0
  3747 ;;Total ram usage:        0 bytes
  3748 ;; Hardware stack levels used: 1
  3749 ;; Hardware stack levels required when called: 1
  3750 ;; This function calls:
  3751 ;;		Nothing
  3752 ;; This function is called by:
  3753 ;;		_init_config
  3754 ;; This function uses a non-reentrant model
  3755 ;;
  3756                           
  3757  1DC8                     _init_matrix_keypad:	
  3758                           ;psect for function _init_matrix_keypad
  3759                           
  3760  1DC8                     l4177:	
  3761                           ;incstack = 0
  3762                           ; Regs used in _init_matrix_keypad: [wreg+status,2]
  3763                           
  3764                           
  3765                           ;matrix_keypad.c: 13:     TRISB = TRISB | 0x07;
  3766  1DC8  1683               	bsf	3,5	;RP0=1, select bank1
  3767  1DC9  1303               	bcf	3,6	;RP1=0, select bank1
  3768  1DCA  0806               	movf	6,w	;volatile
  3769  1DCB  3807               	iorlw	7
  3770  1DCC  0086               	movwf	6	;volatile
  3771                           
  3772                           ;matrix_keypad.c: 17:     TRISD = TRISD & 0xF0;
  3773  1DCD  0808               	movf	8,w	;volatile
  3774  1DCE  39F0               	andlw	240
  3775  1DCF  0088               	movwf	8	;volatile
  3776  1DD0                     l4179:
  3777                           
  3778                           ;matrix_keypad.c: 20:     nRBPU = 0;
  3779  1DD0  1381               	bcf	1,7	;volatile
  3780  1DD1                     l4181:
  3781                           
  3782                           ;matrix_keypad.c: 23:     RD3 = 1;
  3783  1DD1  1283               	bcf	3,5	;RP0=0, select bank0
  3784  1DD2  1303               	bcf	3,6	;RP1=0, select bank0
  3785  1DD3  1588               	bsf	8,3	;volatile
  3786  1DD4                     l4183:
  3787                           
  3788                           ;matrix_keypad.c: 24:     RD2 = 1;
  3789  1DD4  1508               	bsf	8,2	;volatile
  3790  1DD5                     l4185:
  3791                           
  3792                           ;matrix_keypad.c: 25:     RD1 = 1;
  3793  1DD5  1488               	bsf	8,1	;volatile
  3794  1DD6                     l4187:
  3795                           
  3796                           ;matrix_keypad.c: 26:     RD0 = 1;
  3797  1DD6  1408               	bsf	8,0	;volatile
  3798  1DD7                     l386:
  3799  1DD7  0008               	return
  3800  1DD8                     __end_of_init_matrix_keypad:
  3801                           
  3802                           	psect	text10
  3803  11F1                     __ptext10:	
  3804 ;; *************** function _init_i2c *****************
  3805 ;; Defined at:
  3806 ;;		line 9 in file "i2c.c"
  3807 ;; Parameters:    Size  Location     Type
  3808 ;;  baud            4    6[BANK0 ] unsigned long 
  3809 ;; Auto vars:     Size  Location     Type
  3810 ;;		None
  3811 ;; Return value:  Size  Location     Type
  3812 ;;                  1    wreg      void 
  3813 ;; Registers used:
  3814 ;;		wreg, status,2, status,0, pclath, cstack
  3815 ;; Tracked objects:
  3816 ;;		On entry : 0/0
  3817 ;;		On exit  : 0/0
  3818 ;;		Unchanged: 0/0
  3819 ;; Data sizes:     COMMON   BANK0   BANK1   BANK3   BANK2
  3820 ;;      Params:         0       4       0       0       0
  3821 ;;      Locals:         0       0       0       0       0
  3822 ;;      Temps:          0       4       0       0       0
  3823 ;;      Totals:         0       8       0       0       0
  3824 ;;Total ram usage:        8 bytes
  3825 ;; Hardware stack levels used: 1
  3826 ;; Hardware stack levels required when called: 2
  3827 ;; This function calls:
  3828 ;;		___lldiv
  3829 ;; This function is called by:
  3830 ;;		_init_config
  3831 ;; This function uses a non-reentrant model
  3832 ;;
  3833                           
  3834  11F1                     _init_i2c:	
  3835                           ;psect for function _init_i2c
  3836                           
  3837  11F1                     l4171:	
  3838                           ;incstack = 0
  3839                           ; Regs used in _init_i2c: [wreg+status,2+status,0+pclath+cstack]
  3840                           
  3841                           
  3842                           ;i2c.c: 9: void init_i2c(unsigned long baud);i2c.c: 10: {;i2c.c: 12:     SSPM3 = 1;
  3843  11F1  1283               	bcf	3,5	;RP0=0, select bank0
  3844  11F2  1303               	bcf	3,6	;RP1=0, select bank0
  3845  11F3  1594               	bsf	20,3	;volatile
  3846  11F4                     l4173:
  3847                           
  3848                           ;i2c.c: 15:     SSPADD = (unsigned char)(20000000 / (4 * baud)) - 1;
  3849  11F4  0826               	movf	init_i2c@baud,w
  3850  11F5  00AA               	movwf	??_init_i2c
  3851  11F6  0827               	movf	init_i2c@baud+1,w
  3852  11F7  00AB               	movwf	??_init_i2c+1
  3853  11F8  0828               	movf	init_i2c@baud+2,w
  3854  11F9  00AC               	movwf	??_init_i2c+2
  3855  11FA  0829               	movf	init_i2c@baud+3,w
  3856  11FB  00AD               	movwf	??_init_i2c+3
  3857  11FC  3002               	movlw	2
  3858  11FD                     u5225:
  3859  11FD  1003               	clrc
  3860  11FE  0DAA               	rlf	??_init_i2c,f
  3861  11FF  0DAB               	rlf	??_init_i2c+1,f
  3862  1200  0DAC               	rlf	??_init_i2c+2,f
  3863  1201  0DAD               	rlf	??_init_i2c+3,f
  3864  1202                     u5220:
  3865  1202  3EFF               	addlw	-1
  3866  1203  1D03               	skipz
  3867  1204  29FD               	goto	u5225
  3868  1205  082D               	movf	??_init_i2c+3,w
  3869  1206  00F5               	movwf	___lldiv@divisor+3
  3870  1207  082C               	movf	??_init_i2c+2,w
  3871  1208  00F4               	movwf	___lldiv@divisor+2
  3872  1209  082B               	movf	??_init_i2c+1,w
  3873  120A  00F3               	movwf	___lldiv@divisor+1
  3874  120B  082A               	movf	??_init_i2c,w
  3875  120C  00F2               	movwf	___lldiv@divisor
  3876  120D  3001               	movlw	1
  3877  120E  00F9               	movwf	___lldiv@dividend+3
  3878  120F  3031               	movlw	49
  3879  1210  00F8               	movwf	___lldiv@dividend+2
  3880  1211  302D               	movlw	45
  3881  1212  00F7               	movwf	___lldiv@dividend+1
  3882  1213  3000               	movlw	0
  3883  1214  00F6               	movwf	___lldiv@dividend
  3884  1215  160A  118A  2368  160A  118A  	fcall	___lldiv
  3885  121A  0872               	movf	?___lldiv,w
  3886  121B  3EFF               	addlw	255
  3887  121C  1683               	bsf	3,5	;RP0=1, select bank1
  3888  121D  1303               	bcf	3,6	;RP1=0, select bank1
  3889  121E  0093               	movwf	19	;volatile
  3890  121F                     l4175:
  3891                           
  3892                           ;i2c.c: 18:     SSPEN = 1;
  3893  121F  1283               	bcf	3,5	;RP0=0, select bank0
  3894  1220  1303               	bcf	3,6	;RP1=0, select bank0
  3895  1221  1694               	bsf	20,5	;volatile
  3896  1222                     l129:
  3897  1222  0008               	return
  3898  1223                     __end_of_init_i2c:
  3899                           
  3900                           	psect	text11
  3901  1368                     __ptext11:	
  3902 ;; *************** function ___lldiv *****************
  3903 ;; Defined at:
  3904 ;;		line 5 in file "/opt/microchip/xc8/v2.36/pic/sources/c90/common/__lldiv.c"
  3905 ;; Parameters:    Size  Location     Type
  3906 ;;  divisor         4    2[COMMON] unsigned long 
  3907 ;;  dividend        4    6[COMMON] unsigned long 
  3908 ;; Auto vars:     Size  Location     Type
  3909 ;;  quotient        4    1[BANK0 ] unsigned long 
  3910 ;;  counter         1    5[BANK0 ] unsigned char 
  3911 ;; Return value:  Size  Location     Type
  3912 ;;                  4    2[COMMON] unsigned long 
  3913 ;; Registers used:
  3914 ;;		wreg, status,2, status,0
  3915 ;; Tracked objects:
  3916 ;;		On entry : 0/0
  3917 ;;		On exit  : 0/0
  3918 ;;		Unchanged: 0/0
  3919 ;; Data sizes:     COMMON   BANK0   BANK1   BANK3   BANK2
  3920 ;;      Params:         8       0       0       0       0
  3921 ;;      Locals:         0       5       0       0       0
  3922 ;;      Temps:          0       1       0       0       0
  3923 ;;      Totals:         8       6       0       0       0
  3924 ;;Total ram usage:       14 bytes
  3925 ;; Hardware stack levels used: 1
  3926 ;; Hardware stack levels required when called: 1
  3927 ;; This function calls:
  3928 ;;		Nothing
  3929 ;; This function is called by:
  3930 ;;		_init_i2c
  3931 ;;		_init_uart
  3932 ;; This function uses a non-reentrant model
  3933 ;;
  3934                           
  3935  1368                     ___lldiv:	
  3936                           ;psect for function ___lldiv
  3937                           
  3938  1368                     l4113:	
  3939                           ;incstack = 0
  3940                           ; Regs used in ___lldiv: [wreg+status,2+status,0]
  3941                           
  3942  1368  3000               	movlw	0
  3943  1369  1283               	bcf	3,5	;RP0=0, select bank0
  3944  136A  1303               	bcf	3,6	;RP1=0, select bank0
  3945  136B  00A4               	movwf	___lldiv@quotient+3
  3946  136C  3000               	movlw	0
  3947  136D  00A3               	movwf	___lldiv@quotient+2
  3948  136E  3000               	movlw	0
  3949  136F  00A2               	movwf	___lldiv@quotient+1
  3950  1370  3000               	movlw	0
  3951  1371  00A1               	movwf	___lldiv@quotient
  3952  1372  0875               	movf	___lldiv@divisor+3,w
  3953  1373  0474               	iorwf	___lldiv@divisor+2,w
  3954  1374  0473               	iorwf	___lldiv@divisor+1,w
  3955  1375  0472               	iorwf	___lldiv@divisor,w
  3956  1376  1903               	skipnz
  3957  1377  2B79               	goto	u5141
  3958  1378  2B7A               	goto	u5140
  3959  1379                     u5141:
  3960  1379  2BC7               	goto	l4133
  3961  137A                     u5140:
  3962  137A                     l4115:
  3963  137A  01A5               	clrf	___lldiv@counter
  3964  137B  0AA5               	incf	___lldiv@counter,f
  3965  137C  2B8A               	goto	l4119
  3966  137D                     l4117:
  3967  137D  3001               	movlw	1
  3968  137E  00A0               	movwf	??___lldiv
  3969  137F                     u5155:
  3970  137F  1003               	clrc
  3971  1380  0DF2               	rlf	___lldiv@divisor,f
  3972  1381  0DF3               	rlf	___lldiv@divisor+1,f
  3973  1382  0DF4               	rlf	___lldiv@divisor+2,f
  3974  1383  0DF5               	rlf	___lldiv@divisor+3,f
  3975  1384  0BA0               	decfsz	??___lldiv,f
  3976  1385  2B7F               	goto	u5155
  3977  1386  3001               	movlw	1
  3978  1387  00A0               	movwf	??___lldiv
  3979  1388  0820               	movf	??___lldiv,w
  3980  1389  07A5               	addwf	___lldiv@counter,f
  3981  138A                     l4119:
  3982  138A  1FF5               	btfss	___lldiv@divisor+3,7
  3983  138B  2B8D               	goto	u5161
  3984  138C  2B8E               	goto	u5160
  3985  138D                     u5161:
  3986  138D  2B7D               	goto	l4117
  3987  138E                     u5160:
  3988  138E                     l4121:
  3989  138E  3001               	movlw	1
  3990  138F  00A0               	movwf	??___lldiv
  3991  1390                     u5175:
  3992  1390  1003               	clrc
  3993  1391  0DA1               	rlf	___lldiv@quotient,f
  3994  1392  0DA2               	rlf	___lldiv@quotient+1,f
  3995  1393  0DA3               	rlf	___lldiv@quotient+2,f
  3996  1394  0DA4               	rlf	___lldiv@quotient+3,f
  3997  1395  0BA0               	decfsz	??___lldiv,f
  3998  1396  2B90               	goto	u5175
  3999  1397                     l4123:
  4000  1397  0875               	movf	___lldiv@divisor+3,w
  4001  1398  0279               	subwf	___lldiv@dividend+3,w
  4002  1399  1D03               	skipz
  4003  139A  2BA5               	goto	u5185
  4004  139B  0874               	movf	___lldiv@divisor+2,w
  4005  139C  0278               	subwf	___lldiv@dividend+2,w
  4006  139D  1D03               	skipz
  4007  139E  2BA5               	goto	u5185
  4008  139F  0873               	movf	___lldiv@divisor+1,w
  4009  13A0  0277               	subwf	___lldiv@dividend+1,w
  4010  13A1  1D03               	skipz
  4011  13A2  2BA5               	goto	u5185
  4012  13A3  0872               	movf	___lldiv@divisor,w
  4013  13A4  0276               	subwf	___lldiv@dividend,w
  4014  13A5                     u5185:
  4015  13A5  1C03               	skipc
  4016  13A6  2BA8               	goto	u5181
  4017  13A7  2BA9               	goto	u5180
  4018  13A8                     u5181:
  4019  13A8  2BB8               	goto	l4129
  4020  13A9                     u5180:
  4021  13A9                     l4125:
  4022  13A9  0872               	movf	___lldiv@divisor,w
  4023  13AA  02F6               	subwf	___lldiv@dividend,f
  4024  13AB  0873               	movf	___lldiv@divisor+1,w
  4025  13AC  1C03               	skipc
  4026  13AD  0F73               	incfsz	___lldiv@divisor+1,w
  4027  13AE  02F7               	subwf	___lldiv@dividend+1,f
  4028  13AF  0874               	movf	___lldiv@divisor+2,w
  4029  13B0  1C03               	skipc
  4030  13B1  0F74               	incfsz	___lldiv@divisor+2,w
  4031  13B2  02F8               	subwf	___lldiv@dividend+2,f
  4032  13B3  0875               	movf	___lldiv@divisor+3,w
  4033  13B4  1C03               	skipc
  4034  13B5  0F75               	incfsz	___lldiv@divisor+3,w
  4035  13B6  02F9               	subwf	___lldiv@dividend+3,f
  4036  13B7                     l4127:
  4037  13B7  1421               	bsf	___lldiv@quotient,0
  4038  13B8                     l4129:
  4039  13B8  3001               	movlw	1
  4040  13B9                     u5195:
  4041  13B9  1003               	clrc
  4042  13BA  0CF5               	rrf	___lldiv@divisor+3,f
  4043  13BB  0CF4               	rrf	___lldiv@divisor+2,f
  4044  13BC  0CF3               	rrf	___lldiv@divisor+1,f
  4045  13BD  0CF2               	rrf	___lldiv@divisor,f
  4046  13BE  3EFF               	addlw	-1
  4047  13BF  1D03               	skipz
  4048  13C0  2BB9               	goto	u5195
  4049  13C1                     l4131:
  4050  13C1  3001               	movlw	1
  4051  13C2  02A5               	subwf	___lldiv@counter,f
  4052  13C3  1D03               	btfss	3,2
  4053  13C4  2BC6               	goto	u5201
  4054  13C5  2BC7               	goto	u5200
  4055  13C6                     u5201:
  4056  13C6  2B8E               	goto	l4121
  4057  13C7                     u5200:
  4058  13C7                     l4133:
  4059  13C7  0824               	movf	___lldiv@quotient+3,w
  4060  13C8  00F5               	movwf	?___lldiv+3
  4061  13C9  0823               	movf	___lldiv@quotient+2,w
  4062  13CA  00F4               	movwf	?___lldiv+2
  4063  13CB  0822               	movf	___lldiv@quotient+1,w
  4064  13CC  00F3               	movwf	?___lldiv+1
  4065  13CD  0821               	movf	___lldiv@quotient,w
  4066  13CE  00F2               	movwf	?___lldiv
  4067  13CF                     l599:
  4068  13CF  0008               	return
  4069  13D0                     __end_of___lldiv:
  4070                           
  4071                           	psect	text12
  4072  1DFC                     __ptext12:	
  4073 ;; *************** function _init_ds1307 *****************
  4074 ;; Defined at:
  4075 ;;		line 10 in file "ds1307.c"
  4076 ;; Parameters:    Size  Location     Type
  4077 ;;		None
  4078 ;; Auto vars:     Size  Location     Type
  4079 ;;  dummy           1    9[COMMON] unsigned char 
  4080 ;; Return value:  Size  Location     Type
  4081 ;;                  1    wreg      void 
  4082 ;; Registers used:
  4083 ;;		wreg, status,2, status,0, pclath, cstack
  4084 ;; Tracked objects:
  4085 ;;		On entry : 0/0
  4086 ;;		On exit  : 0/0
  4087 ;;		Unchanged: 0/0
  4088 ;; Data sizes:     COMMON   BANK0   BANK1   BANK3   BANK2
  4089 ;;      Params:         0       0       0       0       0
  4090 ;;      Locals:         1       0       0       0       0
  4091 ;;      Temps:          1       0       0       0       0
  4092 ;;      Totals:         2       0       0       0       0
  4093 ;;Total ram usage:        2 bytes
  4094 ;; Hardware stack levels used: 1
  4095 ;; Hardware stack levels required when called: 5
  4096 ;; This function calls:
  4097 ;;		_read_ds1307
  4098 ;;		_write_ds1307
  4099 ;; This function is called by:
  4100 ;;		_init_config
  4101 ;; This function uses a non-reentrant model
  4102 ;;
  4103                           
  4104  1DFC                     _init_ds1307:	
  4105                           ;psect for function _init_ds1307
  4106                           
  4107  1DFC                     l4165:	
  4108                           ;incstack = 0
  4109                           ; Regs used in _init_ds1307: [wreg+status,2+status,0+pclath+cstack]
  4110                           
  4111                           
  4112                           ;ds1307.c: 12:     unsigned char dummy;;ds1307.c: 14:     dummy = read_ds1307(0x00);
  4113  1DFC  3000               	movlw	0
  4114  1DFD  160A  158A  27A4  160A  158A  	fcall	_read_ds1307
  4115  1E02  00F8               	movwf	??_init_ds1307
  4116  1E03  0878               	movf	??_init_ds1307,w
  4117  1E04  00F9               	movwf	init_ds1307@dummy
  4118  1E05                     l4167:
  4119                           
  4120                           ;ds1307.c: 15:     dummy = dummy & 0x7F;
  4121  1E05  0879               	movf	init_ds1307@dummy,w
  4122  1E06  397F               	andlw	127
  4123  1E07  00F8               	movwf	??_init_ds1307
  4124  1E08  0878               	movf	??_init_ds1307,w
  4125  1E09  00F9               	movwf	init_ds1307@dummy
  4126  1E0A                     l4169:
  4127                           
  4128                           ;ds1307.c: 16:     write_ds1307(0x00, dummy);
  4129  1E0A  0879               	movf	init_ds1307@dummy,w
  4130  1E0B  00F8               	movwf	??_init_ds1307
  4131  1E0C  0878               	movf	??_init_ds1307,w
  4132  1E0D  00F3               	movwf	write_ds1307@data
  4133  1E0E  3000               	movlw	0
  4134  1E0F  160A  158A  2615  160A  158A  	fcall	_write_ds1307
  4135  1E14                     l94:
  4136  1E14  0008               	return
  4137  1E15                     __end_of_init_ds1307:
  4138                           
  4139                           	psect	text13
  4140  1E15                     __ptext13:	
  4141 ;; *************** function _write_ds1307 *****************
  4142 ;; Defined at:
  4143 ;;		line 34 in file "ds1307.c"
  4144 ;; Parameters:    Size  Location     Type
  4145 ;;  addr            1    wreg     unsigned char 
  4146 ;;  data            1    3[COMMON] unsigned char 
  4147 ;; Auto vars:     Size  Location     Type
  4148 ;;  addr            1    4[COMMON] unsigned char 
  4149 ;; Return value:  Size  Location     Type
  4150 ;;                  1    wreg      void 
  4151 ;; Registers used:
  4152 ;;		wreg, status,2, status,0, pclath, cstack
  4153 ;; Tracked objects:
  4154 ;;		On entry : 0/0
  4155 ;;		On exit  : 0/0
  4156 ;;		Unchanged: 0/0
  4157 ;; Data sizes:     COMMON   BANK0   BANK1   BANK3   BANK2
  4158 ;;      Params:         1       0       0       0       0
  4159 ;;      Locals:         1       0       0       0       0
  4160 ;;      Temps:          0       0       0       0       0
  4161 ;;      Totals:         2       0       0       0       0
  4162 ;;Total ram usage:        2 bytes
  4163 ;; Hardware stack levels used: 1
  4164 ;; Hardware stack levels required when called: 3
  4165 ;; This function calls:
  4166 ;;		_i2c_start
  4167 ;;		_i2c_stop
  4168 ;;		_i2c_write
  4169 ;; This function is called by:
  4170 ;;		_init_ds1307
  4171 ;;		_main
  4172 ;; This function uses a non-reentrant model
  4173 ;;
  4174                           
  4175  1E15                     _write_ds1307:	
  4176                           ;psect for function _write_ds1307
  4177                           
  4178                           
  4179                           ;incstack = 0
  4180                           ; Regs used in _write_ds1307: [wreg+status,2+status,0+pclath+cstack]
  4181                           ;write_ds1307@addr stored from wreg
  4182  1E15  00F4               	movwf	write_ds1307@addr
  4183  1E16                     l4025:
  4184                           
  4185                           ;ds1307.c: 34: void write_ds1307(unsigned char addr, unsigned char data);ds1307.c: 35: {
      +                          ;ds1307.c: 36:     i2c_start();
  4186  1E16  160A  158A  2573  160A  158A  	fcall	_i2c_start
  4187                           
  4188                           ;ds1307.c: 37:     i2c_write(0b11010000);
  4189  1E1B  30D0               	movlw	208
  4190  1E1C  160A  158A  259A  160A  158A  	fcall	_i2c_write
  4191                           
  4192                           ;ds1307.c: 38:     i2c_write(addr);
  4193  1E21  0874               	movf	write_ds1307@addr,w
  4194  1E22  160A  158A  259A  160A  158A  	fcall	_i2c_write
  4195                           
  4196                           ;ds1307.c: 39:     i2c_write(data);
  4197  1E27  0873               	movf	write_ds1307@data,w
  4198  1E28  160A  158A  259A  160A  158A  	fcall	_i2c_write
  4199                           
  4200                           ;ds1307.c: 40:     i2c_stop();
  4201  1E2D  160A  158A  257C  160A  158A  	fcall	_i2c_stop
  4202  1E32                     l100:
  4203  1E32  0008               	return
  4204  1E33                     __end_of_write_ds1307:
  4205                           
  4206                           	psect	text14
  4207  1DA5                     __ptext14:	
  4208 ;; *************** function _init_clcd *****************
  4209 ;; Defined at:
  4210 ;;		line 49 in file "clcd.c"
  4211 ;; Parameters:    Size  Location     Type
  4212 ;;		None
  4213 ;; Auto vars:     Size  Location     Type
  4214 ;;		None
  4215 ;; Return value:  Size  Location     Type
  4216 ;;                  1    wreg      void 
  4217 ;; Registers used:
  4218 ;;		wreg, status,2, status,0, pclath, cstack
  4219 ;; Tracked objects:
  4220 ;;		On entry : 0/0
  4221 ;;		On exit  : 0/0
  4222 ;;		Unchanged: 0/0
  4223 ;; Data sizes:     COMMON   BANK0   BANK1   BANK3   BANK2
  4224 ;;      Params:         0       0       0       0       0
  4225 ;;      Locals:         0       0       0       0       0
  4226 ;;      Temps:          0       0       0       0       0
  4227 ;;      Totals:         0       0       0       0       0
  4228 ;;Total ram usage:        0 bytes
  4229 ;; Hardware stack levels used: 1
  4230 ;; Hardware stack levels required when called: 3
  4231 ;; This function calls:
  4232 ;;		_init_display_controller
  4233 ;; This function is called by:
  4234 ;;		_init_config
  4235 ;; This function uses a non-reentrant model
  4236 ;;
  4237                           
  4238  1DA5                     _init_clcd:	
  4239                           ;psect for function _init_clcd
  4240                           
  4241  1DA5                     l4147:	
  4242                           ;incstack = 0
  4243                           ; Regs used in _init_clcd: [wreg+status,2+status,0+pclath+cstack]
  4244                           
  4245                           
  4246                           ;clcd.c: 52:     TRISD = 0x00;
  4247  1DA5  1683               	bsf	3,5	;RP0=1, select bank1
  4248  1DA6  1303               	bcf	3,6	;RP1=0, select bank1
  4249  1DA7  0188               	clrf	8	;volatile
  4250  1DA8                     l4149:
  4251                           
  4252                           ;clcd.c: 55:     TRISE2 = 0;
  4253  1DA8  1109               	bcf	9,2	;volatile
  4254  1DA9                     l4151:
  4255                           
  4256                           ;clcd.c: 56:     TRISE1 = 0;
  4257  1DA9  1089               	bcf	9,1	;volatile
  4258  1DAA                     l4153:
  4259                           
  4260                           ;clcd.c: 58:     init_display_controller();
  4261  1DAA  160A  118A  2305  160A  158A  	fcall	_init_display_controller
  4262  1DAF                     l68:
  4263  1DAF  0008               	return
  4264  1DB0                     __end_of_init_clcd:
  4265                           
  4266                           	psect	text15
  4267  1305                     __ptext15:	
  4268 ;; *************** function _init_display_controller *****************
  4269 ;; Defined at:
  4270 ;;		line 26 in file "clcd.c"
  4271 ;; Parameters:    Size  Location     Type
  4272 ;;		None
  4273 ;; Auto vars:     Size  Location     Type
  4274 ;;		None
  4275 ;; Return value:  Size  Location     Type
  4276 ;;                  1    wreg      void 
  4277 ;; Registers used:
  4278 ;;		wreg, status,2, status,0, pclath, cstack
  4279 ;; Tracked objects:
  4280 ;;		On entry : 0/0
  4281 ;;		On exit  : 0/0
  4282 ;;		Unchanged: 0/0
  4283 ;; Data sizes:     COMMON   BANK0   BANK1   BANK3   BANK2
  4284 ;;      Params:         0       0       0       0       0
  4285 ;;      Locals:         0       0       0       0       0
  4286 ;;      Temps:          2       0       0       0       0
  4287 ;;      Totals:         2       0       0       0       0
  4288 ;;Total ram usage:        2 bytes
  4289 ;; Hardware stack levels used: 1
  4290 ;; Hardware stack levels required when called: 2
  4291 ;; This function calls:
  4292 ;;		_clcd_write
  4293 ;; This function is called by:
  4294 ;;		_init_clcd
  4295 ;; This function uses a non-reentrant model
  4296 ;;
  4297                           
  4298  1305                     _init_display_controller:	
  4299                           ;psect for function _init_display_controller
  4300                           
  4301  1305                     l3995:	
  4302                           ;incstack = 0
  4303                           ; Regs used in _init_display_controller: [wreg+status,2+status,0+pclath+cstack]
  4304                           
  4305                           
  4306                           ;clcd.c: 29:     _delay((unsigned long)((30)*(20000000/4000.0)));
  4307  1305  30C3               	movlw	195
  4308  1306  00F7               	movwf	??_init_display_controller+1
  4309  1307  30CD               	movlw	205
  4310  1308  00F6               	movwf	??_init_display_controller
  4311  1309                     u7367:
  4312  1309  0BF6               	decfsz	??_init_display_controller,f
  4313  130A  2B09               	goto	u7367
  4314  130B  0BF7               	decfsz	??_init_display_controller+1,f
  4315  130C  2B09               	goto	u7367
  4316  130D                     l3997:
  4317                           
  4318                           ;clcd.c: 32:     clcd_write(0x33, 0);
  4319  130D  01F2               	clrf	clcd_write@mode
  4320  130E  3033               	movlw	51
  4321  130F  120A  118A  27C8  160A  118A  	fcall	_clcd_write
  4322  1314                     l3999:
  4323                           
  4324                           ;clcd.c: 33:     _delay((unsigned long)((4100)*(20000000/4000000.0)));
  4325  1314  301B               	movlw	27
  4326  1315  00F7               	movwf	??_init_display_controller+1
  4327  1316  309E               	movlw	158
  4328  1317  00F6               	movwf	??_init_display_controller
  4329  1318                     u7377:
  4330  1318  0BF6               	decfsz	??_init_display_controller,f
  4331  1319  2B18               	goto	u7377
  4332  131A  0BF7               	decfsz	??_init_display_controller+1,f
  4333  131B  2B18               	goto	u7377
  4334  131C  0000               	nop
  4335                           
  4336                           ;clcd.c: 34:     clcd_write(0x33, 0);
  4337  131D  01F2               	clrf	clcd_write@mode
  4338  131E  3033               	movlw	51
  4339  131F  120A  118A  27C8  160A  118A  	fcall	_clcd_write
  4340  1324                     l4001:
  4341                           
  4342                           ;clcd.c: 35:     _delay((unsigned long)((100)*(20000000/4000000.0)));
  4343  1324  30A6               	movlw	166
  4344  1325  00F6               	movwf	??_init_display_controller
  4345  1326                     u7387:
  4346  1326  0BF6               	decfsz	??_init_display_controller,f
  4347  1327  2B26               	goto	u7387
  4348  1328  0000               	nop
  4349  1329                     l4003:
  4350                           
  4351                           ;clcd.c: 36:     clcd_write(0x33, 0);
  4352  1329  01F2               	clrf	clcd_write@mode
  4353  132A  3033               	movlw	51
  4354  132B  120A  118A  27C8  160A  118A  	fcall	_clcd_write
  4355  1330                     l4005:
  4356                           
  4357                           ;clcd.c: 37:     _delay((unsigned long)((1)*(20000000/4000000.0)));
  4358  1330  2B31               	nop2	;2 cycle nop
  4359  1331  2B32               	nop2	;2 cycle nop
  4360  1332  0000               	nop
  4361  1333                     l4007:
  4362                           
  4363                           ;clcd.c: 39:     clcd_write(0x02, 0);
  4364  1333  01F2               	clrf	clcd_write@mode
  4365  1334  3002               	movlw	2
  4366  1335  120A  118A  27C8  160A  118A  	fcall	_clcd_write
  4367  133A                     l4009:
  4368                           
  4369                           ;clcd.c: 40:     _delay((unsigned long)((100)*(20000000/4000000.0)));
  4370  133A  30A6               	movlw	166
  4371  133B  00F6               	movwf	??_init_display_controller
  4372  133C                     u7397:
  4373  133C  0BF6               	decfsz	??_init_display_controller,f
  4374  133D  2B3C               	goto	u7397
  4375  133E  0000               	nop
  4376                           
  4377                           ;clcd.c: 41:     clcd_write(0x28, 0);
  4378  133F  01F2               	clrf	clcd_write@mode
  4379  1340  3028               	movlw	40
  4380  1341  120A  118A  27C8  160A  118A  	fcall	_clcd_write
  4381  1346                     l4011:
  4382                           
  4383                           ;clcd.c: 42:     _delay((unsigned long)((100)*(20000000/4000000.0)));
  4384  1346  30A6               	movlw	166
  4385  1347  00F6               	movwf	??_init_display_controller
  4386  1348                     u7407:
  4387  1348  0BF6               	decfsz	??_init_display_controller,f
  4388  1349  2B48               	goto	u7407
  4389  134A  0000               	nop
  4390  134B                     l4013:
  4391                           
  4392                           ;clcd.c: 43:     clcd_write(0x01, 0);
  4393  134B  01F2               	clrf	clcd_write@mode
  4394  134C  3001               	movlw	1
  4395  134D  120A  118A  27C8  160A  118A  	fcall	_clcd_write
  4396                           
  4397                           ;clcd.c: 44:     _delay((unsigned long)((500)*(20000000/4000000.0)));
  4398  1352  3004               	movlw	4
  4399  1353  00F7               	movwf	??_init_display_controller+1
  4400  1354  303D               	movlw	61
  4401  1355  00F6               	movwf	??_init_display_controller
  4402  1356                     u7417:
  4403  1356  0BF6               	decfsz	??_init_display_controller,f
  4404  1357  2B56               	goto	u7417
  4405  1358  0BF7               	decfsz	??_init_display_controller+1,f
  4406  1359  2B56               	goto	u7417
  4407  135A  2B5B               	nop2
  4408  135B                     l4015:
  4409                           
  4410                           ;clcd.c: 45:     clcd_write(0x0C, 0);
  4411  135B  01F2               	clrf	clcd_write@mode
  4412  135C  300C               	movlw	12
  4413  135D  120A  118A  27C8  160A  118A  	fcall	_clcd_write
  4414  1362                     l4017:
  4415                           
  4416                           ;clcd.c: 46:     _delay((unsigned long)((100)*(20000000/4000000.0)));
  4417  1362  30A6               	movlw	166
  4418  1363  00F6               	movwf	??_init_display_controller
  4419  1364                     u7427:
  4420  1364  0BF6               	decfsz	??_init_display_controller,f
  4421  1365  2B64               	goto	u7427
  4422  1366  0000               	nop
  4423  1367                     l65:
  4424  1367  0008               	return
  4425  1368                     __end_of_init_display_controller:
  4426                           
  4427                           	psect	text16
  4428  1D6C                     __ptext16:	
  4429 ;; *************** function _init_adc *****************
  4430 ;; Defined at:
  4431 ;;		line 8 in file "adc.c"
  4432 ;; Parameters:    Size  Location     Type
  4433 ;;		None
  4434 ;; Auto vars:     Size  Location     Type
  4435 ;;		None
  4436 ;; Return value:  Size  Location     Type
  4437 ;;                  1    wreg      void 
  4438 ;; Registers used:
  4439 ;;		None
  4440 ;; Tracked objects:
  4441 ;;		On entry : 0/0
  4442 ;;		On exit  : 0/0
  4443 ;;		Unchanged: 0/0
  4444 ;; Data sizes:     COMMON   BANK0   BANK1   BANK3   BANK2
  4445 ;;      Params:         0       0       0       0       0
  4446 ;;      Locals:         0       0       0       0       0
  4447 ;;      Temps:          0       0       0       0       0
  4448 ;;      Totals:         0       0       0       0       0
  4449 ;;Total ram usage:        0 bytes
  4450 ;; Hardware stack levels used: 1
  4451 ;; Hardware stack levels required when called: 1
  4452 ;; This function calls:
  4453 ;;		Nothing
  4454 ;; This function is called by:
  4455 ;;		_init_config
  4456 ;; This function uses a non-reentrant model
  4457 ;;
  4458                           
  4459  1D6C                     _init_adc:	
  4460                           ;psect for function _init_adc
  4461                           
  4462  1D6C                     l4145:	
  4463                           ;incstack = 0
  4464                           ; Regs used in _init_adc: []
  4465                           
  4466                           
  4467                           ;adc.c: 11:     ADFM = 1;
  4468  1D6C  1683               	bsf	3,5	;RP0=1, select bank1
  4469  1D6D  1303               	bcf	3,6	;RP1=0, select bank1
  4470  1D6E  179F               	bsf	31,7	;volatile
  4471                           
  4472                           ;adc.c: 14:     ADON = 1;
  4473  1D6F  1283               	bcf	3,5	;RP0=0, select bank0
  4474  1D70  1303               	bcf	3,6	;RP1=0, select bank0
  4475  1D71  141F               	bsf	31,0	;volatile
  4476  1D72                     l39:
  4477  1D72  0008               	return
  4478  1D73                     __end_of_init_adc:
  4479                           
  4480                           	psect	text17
  4481  1EFE                     __ptext17:	
  4482 ;; *************** function _get_time *****************
  4483 ;; Defined at:
  4484 ;;		line 57 in file "main.c"
  4485 ;; Parameters:    Size  Location     Type
  4486 ;;  clock_reg       1    wreg     PTR unsigned char 
  4487 ;;		 -> main@clock_reg(3), 
  4488 ;; Auto vars:     Size  Location     Type
  4489 ;;  clock_reg       1    9[COMMON] PTR unsigned char 
  4490 ;;		 -> main@clock_reg(3), 
  4491 ;; Return value:  Size  Location     Type
  4492 ;;                  1    wreg      void 
  4493 ;; Registers used:
  4494 ;;		wreg, fsr0l, fsr0h, status,2, status,0, pclath, cstack
  4495 ;; Tracked objects:
  4496 ;;		On entry : 0/0
  4497 ;;		On exit  : 0/0
  4498 ;;		Unchanged: 0/0
  4499 ;; Data sizes:     COMMON   BANK0   BANK1   BANK3   BANK2
  4500 ;;      Params:         0       0       0       0       0
  4501 ;;      Locals:         1       0       0       0       0
  4502 ;;      Temps:          1       0       0       0       0
  4503 ;;      Totals:         2       0       0       0       0
  4504 ;;Total ram usage:        2 bytes
  4505 ;; Hardware stack levels used: 1
  4506 ;; Hardware stack levels required when called: 5
  4507 ;; This function calls:
  4508 ;;		_read_ds1307
  4509 ;; This function is called by:
  4510 ;;		_main
  4511 ;; This function uses a non-reentrant model
  4512 ;;
  4513                           
  4514  1EFE                     _get_time:	
  4515                           ;psect for function _get_time
  4516                           
  4517                           
  4518                           ;incstack = 0
  4519                           ; Regs used in _get_time: [wreg-fsr0h+status,2+status,0+pclath+cstack]
  4520                           ;get_time@clock_reg stored from wreg
  4521  1EFE  00F9               	movwf	get_time@clock_reg
  4522  1EFF                     l4361:
  4523                           
  4524                           ;main.c: 57:     unsigned char org_password = read_24c02(0x04);;main.c: 58:     clcd_pri
      +                          nt("                ", (0xC0 + 0));;main.c: 59:     unsigned char temp_password = 0, key
      +                          _state = 0xFF, count = 0;
  4525  1EFF  3002               	movlw	2
  4526  1F00  160A  158A  27A4  160A  158A  	fcall	_read_ds1307
  4527  1F05  00F8               	movwf	??_get_time
  4528  1F06  0879               	movf	get_time@clock_reg,w
  4529  1F07  0084               	movwf	4
  4530  1F08  0878               	movf	??_get_time,w
  4531  1F09  1783               	bsf	3,7	;select IRP bank2
  4532  1F0A  0080               	movwf	0
  4533                           
  4534                           ;main.c: 60:     while(1)
  4535  1F0B  3001               	movlw	1
  4536  1F0C  160A  158A  27A4  160A  158A  	fcall	_read_ds1307
  4537  1F11  00F8               	movwf	??_get_time
  4538  1F12  0A79               	incf	get_time@clock_reg,w
  4539  1F13  0084               	movwf	4
  4540  1F14  0878               	movf	??_get_time,w
  4541  1F15  1783               	bsf	3,7	;select IRP bank2
  4542  1F16  0080               	movwf	0
  4543                           
  4544                           ;main.c: 61:     {
  4545  1F17  3000               	movlw	0
  4546  1F18  160A  158A  27A4  160A  158A  	fcall	_read_ds1307
  4547  1F1D  00F8               	movwf	??_get_time
  4548  1F1E  0879               	movf	get_time@clock_reg,w
  4549  1F1F  3E02               	addlw	2
  4550  1F20  0084               	movwf	4
  4551  1F21  0878               	movf	??_get_time,w
  4552  1F22  1783               	bsf	3,7	;select IRP bank2
  4553  1F23  0080               	movwf	0
  4554  1F24                     l216:
  4555  1F24  0008               	return
  4556  1F25                     __end_of_get_time:
  4557                           
  4558                           	psect	text18
  4559  1FA4                     __ptext18:	
  4560 ;; *************** function _read_ds1307 *****************
  4561 ;; Defined at:
  4562 ;;		line 19 in file "ds1307.c"
  4563 ;; Parameters:    Size  Location     Type
  4564 ;;  addr            1    wreg     unsigned char 
  4565 ;; Auto vars:     Size  Location     Type
  4566 ;;  addr            1    6[COMMON] unsigned char 
  4567 ;;  data            1    7[COMMON] unsigned char 
  4568 ;; Return value:  Size  Location     Type
  4569 ;;                  1    wreg      unsigned char 
  4570 ;; Registers used:
  4571 ;;		wreg, status,2, status,0, pclath, cstack
  4572 ;; Tracked objects:
  4573 ;;		On entry : 0/0
  4574 ;;		On exit  : 0/0
  4575 ;;		Unchanged: 0/0
  4576 ;; Data sizes:     COMMON   BANK0   BANK1   BANK3   BANK2
  4577 ;;      Params:         0       0       0       0       0
  4578 ;;      Locals:         2       0       0       0       0
  4579 ;;      Temps:          1       0       0       0       0
  4580 ;;      Totals:         3       0       0       0       0
  4581 ;;Total ram usage:        3 bytes
  4582 ;; Hardware stack levels used: 1
  4583 ;; Hardware stack levels required when called: 4
  4584 ;; This function calls:
  4585 ;;		_i2c_read
  4586 ;;		_i2c_rep_start
  4587 ;;		_i2c_start
  4588 ;;		_i2c_stop
  4589 ;;		_i2c_write
  4590 ;; This function is called by:
  4591 ;;		_init_ds1307
  4592 ;;		_get_time
  4593 ;; This function uses a non-reentrant model
  4594 ;;
  4595                           
  4596  1FA4                     _read_ds1307:	
  4597                           ;psect for function _read_ds1307
  4598                           
  4599                           
  4600                           ;incstack = 0
  4601                           ; Regs used in _read_ds1307: [wreg+status,2+status,0+pclath+cstack]
  4602                           ;read_ds1307@addr stored from wreg
  4603  1FA4  00F6               	movwf	read_ds1307@addr
  4604  1FA5                     l4019:
  4605                           
  4606                           ;ds1307.c: 19: unsigned char read_ds1307(unsigned char addr);ds1307.c: 20: {;ds1307.c: 2
      +                          1:     unsigned char data;;ds1307.c: 23:     i2c_start();
  4607  1FA5  160A  158A  2573  160A  158A  	fcall	_i2c_start
  4608                           
  4609                           ;ds1307.c: 24:     i2c_write(0b11010000);
  4610  1FAA  30D0               	movlw	208
  4611  1FAB  160A  158A  259A  160A  158A  	fcall	_i2c_write
  4612                           
  4613                           ;ds1307.c: 25:     i2c_write(addr);
  4614  1FB0  0876               	movf	read_ds1307@addr,w
  4615  1FB1  160A  158A  259A  160A  158A  	fcall	_i2c_write
  4616                           
  4617                           ;ds1307.c: 26:     i2c_rep_start();
  4618  1FB6  160A  158A  258F  160A  158A  	fcall	_i2c_rep_start
  4619                           
  4620                           ;ds1307.c: 27:     i2c_write(0b11010001);
  4621  1FBB  30D1               	movlw	209
  4622  1FBC  160A  158A  259A  160A  158A  	fcall	_i2c_write
  4623                           
  4624                           ;ds1307.c: 28:     data = i2c_read(0);
  4625  1FC1  3000               	movlw	0
  4626  1FC2  160A  158A  2692  160A  158A  	fcall	_i2c_read
  4627  1FC7  00F5               	movwf	??_read_ds1307
  4628  1FC8  0875               	movf	??_read_ds1307,w
  4629  1FC9  00F7               	movwf	read_ds1307@data
  4630                           
  4631                           ;ds1307.c: 29:     i2c_stop();
  4632  1FCA  160A  158A  257C  160A  158A  	fcall	_i2c_stop
  4633  1FCF                     l4021:
  4634                           
  4635                           ;ds1307.c: 31:     return data;
  4636  1FCF  0877               	movf	read_ds1307@data,w
  4637  1FD0                     l97:
  4638  1FD0  0008               	return
  4639  1FD1                     __end_of_read_ds1307:
  4640                           
  4641                           	psect	text19
  4642  14B5                     __ptext19:	
  4643 ;; *************** function _display_time *****************
  4644 ;; Defined at:
  4645 ;;		line 38 in file "main.c"
  4646 ;; Parameters:    Size  Location     Type
  4647 ;;  clock_reg       1    wreg     PTR unsigned char 
  4648 ;;		 -> main@clock_reg(3), 
  4649 ;; Auto vars:     Size  Location     Type
  4650 ;;  clock_reg       1    9[COMMON] PTR unsigned char 
  4651 ;;		 -> main@clock_reg(3), 
  4652 ;; Return value:  Size  Location     Type
  4653 ;;                  1    wreg      void 
  4654 ;; Registers used:
  4655 ;;		wreg, fsr0l, fsr0h, status,2, status,0, btemp+1, pclath, cstack
  4656 ;; Tracked objects:
  4657 ;;		On entry : 0/0
  4658 ;;		On exit  : 0/0
  4659 ;;		Unchanged: 0/0
  4660 ;; Data sizes:     COMMON   BANK0   BANK1   BANK3   BANK2
  4661 ;;      Params:         0       0       0       0       0
  4662 ;;      Locals:         1       0       0       0       0
  4663 ;;      Temps:          0       2       0       0       0
  4664 ;;      Totals:         1       2       0       0       0
  4665 ;;Total ram usage:        3 bytes
  4666 ;; Hardware stack levels used: 1
  4667 ;; Hardware stack levels required when called: 3
  4668 ;; This function calls:
  4669 ;;		_clcd_print
  4670 ;; This function is called by:
  4671 ;;		_main
  4672 ;; This function uses a non-reentrant model
  4673 ;;
  4674                           
  4675  14B5                     _display_time:	
  4676                           ;psect for function _display_time
  4677                           
  4678                           
  4679                           ;incstack = 0
  4680                           ; Regs used in _display_time: [wreg-fsr0h+status,2+status,0+btemp+1+pclath+cstack]
  4681                           ;display_time@clock_reg stored from wreg
  4682  14B5  00F9               	movwf	display_time@clock_reg
  4683  14B6                     l4347:
  4684                           
  4685                           ;main.c: 38:     clock_reg[0] = read_ds1307(0x02);;main.c: 39:     clock_reg[1] = read_d
      +                          s1307(0x01);;main.c: 41: }
  4686  14B6  0879               	movf	display_time@clock_reg,w
  4687  14B7  0084               	movwf	4
  4688  14B8  1783               	bsf	3,7	;select IRP bank2
  4689  14B9  0800               	movf	0,w
  4690  14BA  1283               	bcf	3,5	;RP0=0, select bank0
  4691  14BB  1303               	bcf	3,6	;RP1=0, select bank0
  4692  14BC  00A0               	movwf	??_display_time
  4693  14BD  3004               	movlw	4
  4694  14BE                     u5545:
  4695  14BE  1003               	clrc
  4696  14BF  0CA0               	rrf	??_display_time,f
  4697  14C0  3EFF               	addlw	-1
  4698  14C1  1D03               	skipz
  4699  14C2  2CBE               	goto	u5545
  4700  14C3  0820               	movf	??_display_time,w
  4701  14C4  3903               	andlw	3
  4702  14C5  3E30               	addlw	48
  4703  14C6  00A1               	movwf	??_display_time+1
  4704  14C7  0821               	movf	??_display_time+1,w
  4705  14C8  1683               	bsf	3,5	;RP0=1, select bank3
  4706  14C9  1703               	bsf	3,6	;RP1=1, select bank3
  4707  14CA  00E1               	movwf	_time^(0+384)
  4708                           
  4709                           ;main.c: 42: 
  4710  14CB  0879               	movf	display_time@clock_reg,w
  4711  14CC  0084               	movwf	4
  4712  14CD  0800               	movf	0,w
  4713  14CE  390F               	andlw	15
  4714  14CF  3E30               	addlw	48
  4715  14D0  1283               	bcf	3,5	;RP0=0, select bank0
  4716  14D1  1303               	bcf	3,6	;RP1=0, select bank0
  4717  14D2  00A0               	movwf	??_display_time
  4718  14D3  0820               	movf	??_display_time,w
  4719  14D4  1683               	bsf	3,5	;RP0=1, select bank3
  4720  14D5  1703               	bsf	3,6	;RP1=1, select bank3
  4721  14D6  00E2               	movwf	(_time^(0+384)+1)
  4722  14D7                     l4349:
  4723                           
  4724                           ;main.c: 43: static void init_config(void) {
  4725  14D7  303A               	movlw	58
  4726  14D8  1283               	bcf	3,5	;RP0=0, select bank0
  4727  14D9  1303               	bcf	3,6	;RP1=0, select bank0
  4728  14DA  00A0               	movwf	??_display_time
  4729  14DB  0820               	movf	??_display_time,w
  4730  14DC  1683               	bsf	3,5	;RP0=1, select bank3
  4731  14DD  1703               	bsf	3,6	;RP1=1, select bank3
  4732  14DE  00E3               	movwf	(_time^(0+384)+2)
  4733  14DF                     l4351:
  4734                           
  4735                           ;main.c: 45:     init_matrix_keypad();
  4736  14DF  0A79               	incf	display_time@clock_reg,w
  4737  14E0  0084               	movwf	4
  4738  14E1  0800               	movf	0,w
  4739  14E2  1283               	bcf	3,5	;RP0=0, select bank0
  4740  14E3  1303               	bcf	3,6	;RP1=0, select bank0
  4741  14E4  00A0               	movwf	??_display_time
  4742  14E5  3004               	movlw	4
  4743  14E6                     u5555:
  4744  14E6  1003               	clrc
  4745  14E7  0CA0               	rrf	??_display_time,f
  4746  14E8  3EFF               	addlw	-1
  4747  14E9  1D03               	skipz
  4748  14EA  2CE6               	goto	u5555
  4749  14EB  0820               	movf	??_display_time,w
  4750  14EC  3907               	andlw	7
  4751  14ED  3E30               	addlw	48
  4752  14EE  00A1               	movwf	??_display_time+1
  4753  14EF  0821               	movf	??_display_time+1,w
  4754  14F0  1683               	bsf	3,5	;RP0=1, select bank3
  4755  14F1  1703               	bsf	3,6	;RP1=1, select bank3
  4756  14F2  00E4               	movwf	(_time^(0+384)+3)
  4757  14F3                     l4353:
  4758                           
  4759                           ;main.c: 46:     init_i2c(100000);
  4760  14F3  0A79               	incf	display_time@clock_reg,w
  4761  14F4  0084               	movwf	4
  4762  14F5  0800               	movf	0,w
  4763  14F6  390F               	andlw	15
  4764  14F7  3E30               	addlw	48
  4765  14F8  1283               	bcf	3,5	;RP0=0, select bank0
  4766  14F9  1303               	bcf	3,6	;RP1=0, select bank0
  4767  14FA  00A0               	movwf	??_display_time
  4768  14FB  0820               	movf	??_display_time,w
  4769  14FC  1683               	bsf	3,5	;RP0=1, select bank3
  4770  14FD  1703               	bsf	3,6	;RP1=1, select bank3
  4771  14FE  00E5               	movwf	(_time^(0+384)+4)
  4772  14FF                     l4355:
  4773                           
  4774                           ;main.c: 48:     init_adc();
  4775  14FF  303A               	movlw	58
  4776  1500  1283               	bcf	3,5	;RP0=0, select bank0
  4777  1501  1303               	bcf	3,6	;RP1=0, select bank0
  4778  1502  00A0               	movwf	??_display_time
  4779  1503  0820               	movf	??_display_time,w
  4780  1504  1683               	bsf	3,5	;RP0=1, select bank3
  4781  1505  1703               	bsf	3,6	;RP1=1, select bank3
  4782  1506  00E6               	movwf	(_time^(0+384)+5)
  4783                           
  4784                           ;main.c: 50:     init_timer0();
  4785  1507  0879               	movf	display_time@clock_reg,w
  4786  1508  3E02               	addlw	2
  4787  1509  0084               	movwf	4
  4788  150A  0800               	movf	0,w
  4789  150B  1283               	bcf	3,5	;RP0=0, select bank0
  4790  150C  1303               	bcf	3,6	;RP1=0, select bank0
  4791  150D  00A0               	movwf	??_display_time
  4792  150E  3004               	movlw	4
  4793  150F                     u5565:
  4794  150F  1003               	clrc
  4795  1510  0CA0               	rrf	??_display_time,f
  4796  1511  3EFF               	addlw	-1
  4797  1512  1D03               	skipz
  4798  1513  2D0F               	goto	u5565
  4799  1514  0820               	movf	??_display_time,w
  4800  1515  3907               	andlw	7
  4801  1516  3E30               	addlw	48
  4802  1517  00A1               	movwf	??_display_time+1
  4803  1518  0821               	movf	??_display_time+1,w
  4804  1519  1683               	bsf	3,5	;RP0=1, select bank3
  4805  151A  1703               	bsf	3,6	;RP1=1, select bank3
  4806  151B  00E7               	movwf	(_time^(0+384)+6)
  4807                           
  4808                           ;main.c: 51: 
  4809  151C  0879               	movf	display_time@clock_reg,w
  4810  151D  3E02               	addlw	2
  4811  151E  0084               	movwf	4
  4812  151F  0800               	movf	0,w
  4813  1520  390F               	andlw	15
  4814  1521  3E30               	addlw	48
  4815  1522  1283               	bcf	3,5	;RP0=0, select bank0
  4816  1523  1303               	bcf	3,6	;RP1=0, select bank0
  4817  1524  00A0               	movwf	??_display_time
  4818  1525  0820               	movf	??_display_time,w
  4819  1526  1683               	bsf	3,5	;RP0=1, select bank3
  4820  1527  1703               	bsf	3,6	;RP1=1, select bank3
  4821  1528  00E8               	movwf	(_time^(0+384)+7)
  4822  1529                     l4357:
  4823                           
  4824                           ;main.c: 52:     GIE = 1;
  4825  1529  01E9               	clrf	(_time^(0+384)+8)
  4826  152A                     l4359:
  4827                           
  4828                           ;main.c: 54: 
  4829  152A  30E1               	movlw	(low (_time| (0+256)))& (0+255)
  4830  152B  00F6               	movwf	clcd_print@str
  4831  152C  3001               	movlw	1
  4832  152D  00F7               	movwf	clcd_print@str+1
  4833  152E  30C0               	movlw	192
  4834  152F  1283               	bcf	3,5	;RP0=0, select bank0
  4835  1530  1303               	bcf	3,6	;RP1=0, select bank0
  4836  1531  00A0               	movwf	??_display_time
  4837  1532  0820               	movf	??_display_time,w
  4838  1533  00F8               	movwf	clcd_print@addr
  4839  1534  160A  158A  27D1  160A  118A  	fcall	_clcd_print
  4840  1539                     l213:
  4841  1539  0008               	return
  4842  153A                     __end_of_display_time:
  4843                           
  4844                           	psect	text20
  4845  125C                     __ptext20:	
  4846 ;; *************** function _display *****************
  4847 ;; Defined at:
  4848 ;;		line 25 in file "main.c"
  4849 ;; Parameters:    Size  Location     Type
  4850 ;;  adc_reg_val_    2    4[BANK0 ] int 
  4851 ;; Auto vars:     Size  Location     Type
  4852 ;;  i               2    6[BANK0 ] int 
  4853 ;; Return value:  Size  Location     Type
  4854 ;;                  1    wreg      void 
  4855 ;; Registers used:
  4856 ;;		wreg, fsr0l, fsr0h, status,2, status,0, btemp+1, pclath, cstack
  4857 ;; Tracked objects:
  4858 ;;		On entry : 0/0
  4859 ;;		On exit  : 0/0
  4860 ;;		Unchanged: 0/0
  4861 ;; Data sizes:     COMMON   BANK0   BANK1   BANK3   BANK2
  4862 ;;      Params:         0       2       0       0       0
  4863 ;;      Locals:         0       2       0       0       0
  4864 ;;      Temps:          1       0       0       0       0
  4865 ;;      Totals:         1       4       0       0       0
  4866 ;;Total ram usage:        5 bytes
  4867 ;; Hardware stack levels used: 1
  4868 ;; Hardware stack levels required when called: 3
  4869 ;; This function calls:
  4870 ;;		___awdiv
  4871 ;;		___awmod
  4872 ;;		_clcd_print
  4873 ;; This function is called by:
  4874 ;;		_main
  4875 ;; This function uses a non-reentrant model
  4876 ;;
  4877                           
  4878  125C                     _display:	
  4879                           ;psect for function _display
  4880                           
  4881  125C                     l4335:	
  4882                           ;incstack = 0
  4883                           ; Regs used in _display: [wreg-fsr0h+status,2+status,0+btemp+1+pclath+cstack]
  4884                           
  4885                           
  4886                           ;main.c: 25:     time[4] = (clock_reg[1] & 0x0F) + '0';;main.c: 26: ;main.c: 27:     tim
      +                          e[5] = ':';;main.c: 28: 
  4887  125C  3001               	movlw	1
  4888  125D  1283               	bcf	3,5	;RP0=0, select bank0
  4889  125E  1303               	bcf	3,6	;RP1=0, select bank0
  4890  125F  00A6               	movwf	display@i
  4891  1260  3000               	movlw	0
  4892  1261  00A7               	movwf	display@i+1
  4893  1262                     l4337:
  4894                           
  4895                           ;main.c: 30:     time[7] = (clock_reg[2] & 0x0F) + '0';;main.c: 31:     time[8] = '\0';
  4896  1262  300A               	movlw	10
  4897  1263  00F2               	movwf	___awmod@divisor
  4898  1264  3000               	movlw	0
  4899  1265  00F3               	movwf	___awmod@divisor+1
  4900  1266  0825               	movf	display@adc_reg_val_speed+1,w
  4901  1267  00F5               	movwf	___awmod@dividend+1
  4902  1268  0824               	movf	display@adc_reg_val_speed,w
  4903  1269  00F4               	movwf	___awmod@dividend
  4904  126A  160A  118A  22AC  160A  118A  	fcall	___awmod
  4905  126F  0872               	movf	?___awmod,w
  4906  1270  3E30               	addlw	48
  4907  1271  00F9               	movwf	??_display
  4908  1272  1283               	bcf	3,5	;RP0=0, select bank0
  4909  1273  1303               	bcf	3,6	;RP1=0, select bank0
  4910  1274  0826               	movf	display@i,w
  4911  1275  3EEA               	addlw	(low (_buff| (0+256)))& (0+255)
  4912  1276  0084               	movwf	4
  4913  1277  0879               	movf	??_display,w
  4914  1278  1783               	bsf	3,7	;select IRP bank3
  4915  1279  0080               	movwf	0
  4916  127A                     l4339:
  4917                           
  4918                           ;main.c: 32: 
  4919  127A  300A               	movlw	10
  4920  127B  00F2               	movwf	___awdiv@divisor
  4921  127C  3000               	movlw	0
  4922  127D  00F3               	movwf	___awdiv@divisor+1
  4923  127E  0825               	movf	display@adc_reg_val_speed+1,w
  4924  127F  00F5               	movwf	___awdiv@dividend+1
  4925  1280  0824               	movf	display@adc_reg_val_speed,w
  4926  1281  00F4               	movwf	___awdiv@dividend
  4927  1282  160A  118A  23D0  160A  118A  	fcall	___awdiv
  4928  1287  0873               	movf	?___awdiv+1,w
  4929  1288  1283               	bcf	3,5	;RP0=0, select bank0
  4930  1289  1303               	bcf	3,6	;RP1=0, select bank0
  4931  128A  00A5               	movwf	display@adc_reg_val_speed+1
  4932  128B  0872               	movf	?___awdiv,w
  4933  128C  00A4               	movwf	display@adc_reg_val_speed
  4934  128D                     l4341:
  4935                           
  4936                           ;main.c: 33:     clcd_print(time, (0xC0 + 0));
  4937  128D  30FF               	movlw	255
  4938  128E  07A6               	addwf	display@i,f
  4939  128F  1803               	skipnc
  4940  1290  0AA7               	incf	display@i+1,f
  4941  1291  30FF               	movlw	255
  4942  1292  07A7               	addwf	display@i+1,f
  4943  1293  0A26               	incf	display@i,w
  4944  1294  1D03               	skipz
  4945  1295  2A9A               	goto	u5531
  4946  1296  0A27               	incf	display@i+1,w
  4947  1297  1D03               	btfss	3,2
  4948  1298  2A9A               	goto	u5531
  4949  1299  2A9B               	goto	u5530
  4950  129A                     u5531:
  4951  129A  2A62               	goto	l4337
  4952  129B                     u5530:
  4953  129B                     l4343:
  4954                           
  4955                           ;main.c: 34: }
  4956  129B  1683               	bsf	3,5	;RP0=1, select bank3
  4957  129C  1703               	bsf	3,6	;RP1=1, select bank3
  4958  129D  01EC               	clrf	(_buff^(0+384)+2)
  4959  129E                     l4345:
  4960                           
  4961                           ;main.c: 35: 
  4962  129E  30EA               	movlw	(low (_buff| (0+256)))& (0+255)
  4963  129F  00F6               	movwf	clcd_print@str
  4964  12A0  3001               	movlw	1
  4965  12A1  00F7               	movwf	clcd_print@str+1
  4966  12A2  30CE               	movlw	206
  4967  12A3  00F9               	movwf	??_display
  4968  12A4  0879               	movf	??_display,w
  4969  12A5  00F8               	movwf	clcd_print@addr
  4970  12A6  160A  158A  27D1  160A  118A  	fcall	_clcd_print
  4971  12AB                     l210:
  4972  12AB  0008               	return
  4973  12AC                     __end_of_display:
  4974                           
  4975                           	psect	text21
  4976  12AC                     __ptext21:	
  4977 ;; *************** function ___awmod *****************
  4978 ;; Defined at:
  4979 ;;		line 5 in file "/opt/microchip/xc8/v2.36/pic/sources/c90/common/awmod.c"
  4980 ;; Parameters:    Size  Location     Type
  4981 ;;  divisor         2    2[COMMON] int 
  4982 ;;  dividend        2    4[COMMON] int 
  4983 ;; Auto vars:     Size  Location     Type
  4984 ;;  sign            1    8[COMMON] unsigned char 
  4985 ;;  counter         1    7[COMMON] unsigned char 
  4986 ;; Return value:  Size  Location     Type
  4987 ;;                  2    2[COMMON] int 
  4988 ;; Registers used:
  4989 ;;		wreg, status,2, status,0
  4990 ;; Tracked objects:
  4991 ;;		On entry : 0/0
  4992 ;;		On exit  : 0/0
  4993 ;;		Unchanged: 0/0
  4994 ;; Data sizes:     COMMON   BANK0   BANK1   BANK3   BANK2
  4995 ;;      Params:         4       0       0       0       0
  4996 ;;      Locals:         2       0       0       0       0
  4997 ;;      Temps:          1       0       0       0       0
  4998 ;;      Totals:         7       0       0       0       0
  4999 ;;Total ram usage:        7 bytes
  5000 ;; Hardware stack levels used: 1
  5001 ;; Hardware stack levels required when called: 1
  5002 ;; This function calls:
  5003 ;;		Nothing
  5004 ;; This function is called by:
  5005 ;;		_display
  5006 ;; This function uses a non-reentrant model
  5007 ;;
  5008                           
  5009  12AC                     ___awmod:	
  5010                           ;psect for function ___awmod
  5011                           
  5012  12AC                     l4275:	
  5013                           ;incstack = 0
  5014                           ; Regs used in ___awmod: [wreg+status,2+status,0]
  5015                           
  5016  12AC  01F8               	clrf	___awmod@sign
  5017  12AD                     l4277:
  5018  12AD  1FF5               	btfss	___awmod@dividend+1,7
  5019  12AE  2AB0               	goto	u5391
  5020  12AF  2AB1               	goto	u5390
  5021  12B0                     u5391:
  5022  12B0  2AB8               	goto	l4283
  5023  12B1                     u5390:
  5024  12B1                     l4279:
  5025  12B1  09F4               	comf	___awmod@dividend,f
  5026  12B2  09F5               	comf	___awmod@dividend+1,f
  5027  12B3  0AF4               	incf	___awmod@dividend,f
  5028  12B4  1903               	skipnz
  5029  12B5  0AF5               	incf	___awmod@dividend+1,f
  5030  12B6                     l4281:
  5031  12B6  01F8               	clrf	___awmod@sign
  5032  12B7  0AF8               	incf	___awmod@sign,f
  5033  12B8                     l4283:
  5034  12B8  1FF3               	btfss	___awmod@divisor+1,7
  5035  12B9  2ABB               	goto	u5401
  5036  12BA  2ABC               	goto	u5400
  5037  12BB                     u5401:
  5038  12BB  2AC1               	goto	l4287
  5039  12BC                     u5400:
  5040  12BC                     l4285:
  5041  12BC  09F2               	comf	___awmod@divisor,f
  5042  12BD  09F3               	comf	___awmod@divisor+1,f
  5043  12BE  0AF2               	incf	___awmod@divisor,f
  5044  12BF  1903               	skipnz
  5045  12C0  0AF3               	incf	___awmod@divisor+1,f
  5046  12C1                     l4287:
  5047  12C1  0872               	movf	___awmod@divisor,w
  5048  12C2  0473               	iorwf	___awmod@divisor+1,w
  5049  12C3  1903               	btfsc	3,2
  5050  12C4  2AC6               	goto	u5411
  5051  12C5  2AC7               	goto	u5410
  5052  12C6                     u5411:
  5053  12C6  2AF6               	goto	l4305
  5054  12C7                     u5410:
  5055  12C7                     l4289:
  5056  12C7  01F7               	clrf	___awmod@counter
  5057  12C8  0AF7               	incf	___awmod@counter,f
  5058  12C9  2AD5               	goto	l4295
  5059  12CA                     l4291:
  5060  12CA  3001               	movlw	1
  5061  12CB                     u5425:
  5062  12CB  1003               	clrc
  5063  12CC  0DF2               	rlf	___awmod@divisor,f
  5064  12CD  0DF3               	rlf	___awmod@divisor+1,f
  5065  12CE  3EFF               	addlw	-1
  5066  12CF  1D03               	skipz
  5067  12D0  2ACB               	goto	u5425
  5068  12D1                     l4293:
  5069  12D1  3001               	movlw	1
  5070  12D2  00F6               	movwf	??___awmod
  5071  12D3  0876               	movf	??___awmod,w
  5072  12D4  07F7               	addwf	___awmod@counter,f
  5073  12D5                     l4295:
  5074  12D5  1FF3               	btfss	___awmod@divisor+1,7
  5075  12D6  2AD8               	goto	u5431
  5076  12D7  2AD9               	goto	u5430
  5077  12D8                     u5431:
  5078  12D8  2ACA               	goto	l4291
  5079  12D9                     u5430:
  5080  12D9                     l4297:
  5081  12D9  0873               	movf	___awmod@divisor+1,w
  5082  12DA  0275               	subwf	___awmod@dividend+1,w
  5083  12DB  1D03               	skipz
  5084  12DC  2ADF               	goto	u5445
  5085  12DD  0872               	movf	___awmod@divisor,w
  5086  12DE  0274               	subwf	___awmod@dividend,w
  5087  12DF                     u5445:
  5088  12DF  1C03               	skipc
  5089  12E0  2AE2               	goto	u5441
  5090  12E1  2AE3               	goto	u5440
  5091  12E2                     u5441:
  5092  12E2  2AE9               	goto	l4301
  5093  12E3                     u5440:
  5094  12E3                     l4299:
  5095  12E3  0872               	movf	___awmod@divisor,w
  5096  12E4  02F4               	subwf	___awmod@dividend,f
  5097  12E5  0873               	movf	___awmod@divisor+1,w
  5098  12E6  1C03               	skipc
  5099  12E7  03F5               	decf	___awmod@dividend+1,f
  5100  12E8  02F5               	subwf	___awmod@dividend+1,f
  5101  12E9                     l4301:
  5102  12E9  3001               	movlw	1
  5103  12EA                     u5455:
  5104  12EA  1003               	clrc
  5105  12EB  0CF3               	rrf	___awmod@divisor+1,f
  5106  12EC  0CF2               	rrf	___awmod@divisor,f
  5107  12ED  3EFF               	addlw	-1
  5108  12EE  1D03               	skipz
  5109  12EF  2AEA               	goto	u5455
  5110  12F0                     l4303:
  5111  12F0  3001               	movlw	1
  5112  12F1  02F7               	subwf	___awmod@counter,f
  5113  12F2  1D03               	btfss	3,2
  5114  12F3  2AF5               	goto	u5461
  5115  12F4  2AF6               	goto	u5460
  5116  12F5                     u5461:
  5117  12F5  2AD9               	goto	l4297
  5118  12F6                     u5460:
  5119  12F6                     l4305:
  5120  12F6  0878               	movf	___awmod@sign,w
  5121  12F7  1903               	btfsc	3,2
  5122  12F8  2AFA               	goto	u5471
  5123  12F9  2AFB               	goto	u5470
  5124  12FA                     u5471:
  5125  12FA  2B00               	goto	l4309
  5126  12FB                     u5470:
  5127  12FB                     l4307:
  5128  12FB  09F4               	comf	___awmod@dividend,f
  5129  12FC  09F5               	comf	___awmod@dividend+1,f
  5130  12FD  0AF4               	incf	___awmod@dividend,f
  5131  12FE  1903               	skipnz
  5132  12FF  0AF5               	incf	___awmod@dividend+1,f
  5133  1300                     l4309:
  5134  1300  0875               	movf	___awmod@dividend+1,w
  5135  1301  00F3               	movwf	?___awmod+1
  5136  1302  0874               	movf	___awmod@dividend,w
  5137  1303  00F2               	movwf	?___awmod
  5138  1304                     l729:
  5139  1304  0008               	return
  5140  1305                     __end_of___awmod:
  5141                           
  5142                           	psect	text22
  5143  13D0                     __ptext22:	
  5144 ;; *************** function ___awdiv *****************
  5145 ;; Defined at:
  5146 ;;		line 5 in file "/opt/microchip/xc8/v2.36/pic/sources/c90/common/awdiv.c"
  5147 ;; Parameters:    Size  Location     Type
  5148 ;;  divisor         2    2[COMMON] int 
  5149 ;;  dividend        2    4[COMMON] int 
  5150 ;; Auto vars:     Size  Location     Type
  5151 ;;  quotient        2    2[BANK0 ] int 
  5152 ;;  sign            1    1[BANK0 ] unsigned char 
  5153 ;;  counter         1    0[BANK0 ] unsigned char 
  5154 ;; Return value:  Size  Location     Type
  5155 ;;                  2    2[COMMON] int 
  5156 ;; Registers used:
  5157 ;;		wreg, status,2, status,0
  5158 ;; Tracked objects:
  5159 ;;		On entry : 0/0
  5160 ;;		On exit  : 0/0
  5161 ;;		Unchanged: 0/0
  5162 ;; Data sizes:     COMMON   BANK0   BANK1   BANK3   BANK2
  5163 ;;      Params:         4       0       0       0       0
  5164 ;;      Locals:         0       4       0       0       0
  5165 ;;      Temps:          1       0       0       0       0
  5166 ;;      Totals:         5       4       0       0       0
  5167 ;;Total ram usage:        9 bytes
  5168 ;; Hardware stack levels used: 1
  5169 ;; Hardware stack levels required when called: 1
  5170 ;; This function calls:
  5171 ;;		Nothing
  5172 ;; This function is called by:
  5173 ;;		_display
  5174 ;; This function uses a non-reentrant model
  5175 ;;
  5176                           
  5177  13D0                     ___awdiv:	
  5178                           ;psect for function ___awdiv
  5179                           
  5180  13D0                     l4231:	
  5181                           ;incstack = 0
  5182                           ; Regs used in ___awdiv: [wreg+status,2+status,0]
  5183                           
  5184  13D0  1283               	bcf	3,5	;RP0=0, select bank0
  5185  13D1  1303               	bcf	3,6	;RP1=0, select bank0
  5186  13D2  01A1               	clrf	___awdiv@sign
  5187  13D3                     l4233:
  5188  13D3  1FF3               	btfss	___awdiv@divisor+1,7
  5189  13D4  2BD6               	goto	u5291
  5190  13D5  2BD7               	goto	u5290
  5191  13D6                     u5291:
  5192  13D6  2BDE               	goto	l4239
  5193  13D7                     u5290:
  5194  13D7                     l4235:
  5195  13D7  09F2               	comf	___awdiv@divisor,f
  5196  13D8  09F3               	comf	___awdiv@divisor+1,f
  5197  13D9  0AF2               	incf	___awdiv@divisor,f
  5198  13DA  1903               	skipnz
  5199  13DB  0AF3               	incf	___awdiv@divisor+1,f
  5200  13DC                     l4237:
  5201  13DC  01A1               	clrf	___awdiv@sign
  5202  13DD  0AA1               	incf	___awdiv@sign,f
  5203  13DE                     l4239:
  5204  13DE  1FF5               	btfss	___awdiv@dividend+1,7
  5205  13DF  2BE1               	goto	u5301
  5206  13E0  2BE2               	goto	u5300
  5207  13E1                     u5301:
  5208  13E1  2BEB               	goto	l4245
  5209  13E2                     u5300:
  5210  13E2                     l4241:
  5211  13E2  09F4               	comf	___awdiv@dividend,f
  5212  13E3  09F5               	comf	___awdiv@dividend+1,f
  5213  13E4  0AF4               	incf	___awdiv@dividend,f
  5214  13E5  1903               	skipnz
  5215  13E6  0AF5               	incf	___awdiv@dividend+1,f
  5216  13E7                     l4243:
  5217  13E7  3001               	movlw	1
  5218  13E8  00F6               	movwf	??___awdiv
  5219  13E9  0876               	movf	??___awdiv,w
  5220  13EA  06A1               	xorwf	___awdiv@sign,f
  5221  13EB                     l4245:
  5222  13EB  01A2               	clrf	___awdiv@quotient
  5223  13EC  01A3               	clrf	___awdiv@quotient+1
  5224  13ED                     l4247:
  5225  13ED  0872               	movf	___awdiv@divisor,w
  5226  13EE  0473               	iorwf	___awdiv@divisor+1,w
  5227  13EF  1903               	btfsc	3,2
  5228  13F0  2BF2               	goto	u5311
  5229  13F1  2BF3               	goto	u5310
  5230  13F2                     u5311:
  5231  13F2  2C2A               	goto	l4267
  5232  13F3                     u5310:
  5233  13F3                     l4249:
  5234  13F3  01A0               	clrf	___awdiv@counter
  5235  13F4  0AA0               	incf	___awdiv@counter,f
  5236  13F5  2C01               	goto	l4255
  5237  13F6                     l4251:
  5238  13F6  3001               	movlw	1
  5239  13F7                     u5325:
  5240  13F7  1003               	clrc
  5241  13F8  0DF2               	rlf	___awdiv@divisor,f
  5242  13F9  0DF3               	rlf	___awdiv@divisor+1,f
  5243  13FA  3EFF               	addlw	-1
  5244  13FB  1D03               	skipz
  5245  13FC  2BF7               	goto	u5325
  5246  13FD                     l4253:
  5247  13FD  3001               	movlw	1
  5248  13FE  00F6               	movwf	??___awdiv
  5249  13FF  0876               	movf	??___awdiv,w
  5250  1400  07A0               	addwf	___awdiv@counter,f
  5251  1401                     l4255:
  5252  1401  1FF3               	btfss	___awdiv@divisor+1,7
  5253  1402  2C04               	goto	u5331
  5254  1403  2C05               	goto	u5330
  5255  1404                     u5331:
  5256  1404  2BF6               	goto	l4251
  5257  1405                     u5330:
  5258  1405                     l4257:
  5259  1405  3001               	movlw	1
  5260  1406                     u5345:
  5261  1406  1003               	clrc
  5262  1407  0DA2               	rlf	___awdiv@quotient,f
  5263  1408  0DA3               	rlf	___awdiv@quotient+1,f
  5264  1409  3EFF               	addlw	-1
  5265  140A  1D03               	skipz
  5266  140B  2C06               	goto	u5345
  5267  140C  0873               	movf	___awdiv@divisor+1,w
  5268  140D  0275               	subwf	___awdiv@dividend+1,w
  5269  140E  1D03               	skipz
  5270  140F  2C12               	goto	u5355
  5271  1410  0872               	movf	___awdiv@divisor,w
  5272  1411  0274               	subwf	___awdiv@dividend,w
  5273  1412                     u5355:
  5274  1412  1C03               	skipc
  5275  1413  2C15               	goto	u5351
  5276  1414  2C16               	goto	u5350
  5277  1415                     u5351:
  5278  1415  2C1D               	goto	l4263
  5279  1416                     u5350:
  5280  1416                     l4259:
  5281  1416  0872               	movf	___awdiv@divisor,w
  5282  1417  02F4               	subwf	___awdiv@dividend,f
  5283  1418  0873               	movf	___awdiv@divisor+1,w
  5284  1419  1C03               	skipc
  5285  141A  03F5               	decf	___awdiv@dividend+1,f
  5286  141B  02F5               	subwf	___awdiv@dividend+1,f
  5287  141C                     l4261:
  5288  141C  1422               	bsf	___awdiv@quotient,0
  5289  141D                     l4263:
  5290  141D  3001               	movlw	1
  5291  141E                     u5365:
  5292  141E  1003               	clrc
  5293  141F  0CF3               	rrf	___awdiv@divisor+1,f
  5294  1420  0CF2               	rrf	___awdiv@divisor,f
  5295  1421  3EFF               	addlw	-1
  5296  1422  1D03               	skipz
  5297  1423  2C1E               	goto	u5365
  5298  1424                     l4265:
  5299  1424  3001               	movlw	1
  5300  1425  02A0               	subwf	___awdiv@counter,f
  5301  1426  1D03               	btfss	3,2
  5302  1427  2C29               	goto	u5371
  5303  1428  2C2A               	goto	u5370
  5304  1429                     u5371:
  5305  1429  2C05               	goto	l4257
  5306  142A                     u5370:
  5307  142A                     l4267:
  5308  142A  0821               	movf	___awdiv@sign,w
  5309  142B  1903               	btfsc	3,2
  5310  142C  2C2E               	goto	u5381
  5311  142D  2C2F               	goto	u5380
  5312  142E                     u5381:
  5313  142E  2C34               	goto	l4271
  5314  142F                     u5380:
  5315  142F                     l4269:
  5316  142F  09A2               	comf	___awdiv@quotient,f
  5317  1430  09A3               	comf	___awdiv@quotient+1,f
  5318  1431  0AA2               	incf	___awdiv@quotient,f
  5319  1432  1903               	skipnz
  5320  1433  0AA3               	incf	___awdiv@quotient+1,f
  5321  1434                     l4271:
  5322  1434  0823               	movf	___awdiv@quotient+1,w
  5323  1435  00F3               	movwf	?___awdiv+1
  5324  1436  0822               	movf	___awdiv@quotient,w
  5325  1437  00F2               	movwf	?___awdiv
  5326  1438                     l716:
  5327  1438  0008               	return
  5328  1439                     __end_of___awdiv:
  5329                           
  5330                           	psect	text23
  5331  153A                     __ptext23:	
  5332 ;; *************** function _check_password *****************
  5333 ;; Defined at:
  5334 ;;		line 76 in file "main.c"
  5335 ;; Parameters:    Size  Location     Type
  5336 ;;		None
  5337 ;; Auto vars:     Size  Location     Type
  5338 ;;  count           1    7[BANK0 ] unsigned char 
  5339 ;;  temp_passwor    1    6[BANK0 ] unsigned char 
  5340 ;;  key_state       1    5[BANK0 ] unsigned char 
  5341 ;;  org_password    1    4[BANK0 ] unsigned char 
  5342 ;; Return value:  Size  Location     Type
  5343 ;;                  2    0[BANK0 ] int 
  5344 ;; Registers used:
  5345 ;;		wreg, fsr0l, fsr0h, status,2, status,0, btemp+1, pclath, cstack
  5346 ;; Tracked objects:
  5347 ;;		On entry : 0/0
  5348 ;;		On exit  : 0/0
  5349 ;;		Unchanged: 0/0
  5350 ;; Data sizes:     COMMON   BANK0   BANK1   BANK3   BANK2
  5351 ;;      Params:         0       2       0       0       0
  5352 ;;      Locals:         0       4       0       0       0
  5353 ;;      Temps:          0       2       0       0       0
  5354 ;;      Totals:         0       8       0       0       0
  5355 ;;Total ram usage:        8 bytes
  5356 ;; Hardware stack levels used: 1
  5357 ;; Hardware stack levels required when called: 5
  5358 ;; This function calls:
  5359 ;;		_clcd_print
  5360 ;;		_clcd_putch
  5361 ;;		_read_24c02
  5362 ;;		_read_matrix_keypad
  5363 ;; This function is called by:
  5364 ;;		_main
  5365 ;; This function uses a non-reentrant model
  5366 ;;
  5367                           
  5368  153A                     _check_password:	
  5369                           ;psect for function _check_password
  5370                           
  5371  153A                     l4373:	
  5372                           ;incstack = 0
  5373                           ; Regs used in _check_password: [wreg-fsr0h+status,2+status,0+btemp+1+pclath+cstack]
  5374                           
  5375                           
  5376                           ;main.c: 78:             temp_password = (temp_password<<1) | 1;
  5377  153A  3004               	movlw	4
  5378  153B  160A  158A  2777  160A  118A  	fcall	_read_24c02
  5379  1540  1283               	bcf	3,5	;RP0=0, select bank0
  5380  1541  1303               	bcf	3,6	;RP1=0, select bank0
  5381  1542  00A2               	movwf	??_check_password
  5382  1543  0822               	movf	??_check_password,w
  5383  1544  00A4               	movwf	check_password@org_password
  5384  1545                     l4375:
  5385                           
  5386                           ;main.c: 79:             count++;
  5387  1545  3028               	movlw	low (STR_1| (0+32768))
  5388  1546  00F6               	movwf	clcd_print@str
  5389  1547  3090               	movlw	high (STR_1| (0+32768))
  5390  1548  00F7               	movwf	clcd_print@str+1
  5391  1549  30C0               	movlw	192
  5392  154A  00A2               	movwf	??_check_password
  5393  154B  0822               	movf	??_check_password,w
  5394  154C  00F8               	movwf	clcd_print@addr
  5395  154D  160A  158A  27D1  160A  118A  	fcall	_clcd_print
  5396  1552                     l4377:
  5397                           
  5398                           ;main.c: 80:             continue;
  5399  1552  1283               	bcf	3,5	;RP0=0, select bank0
  5400  1553  1303               	bcf	3,6	;RP1=0, select bank0
  5401  1554  01A6               	clrf	check_password@temp_password
  5402  1555                     l4379:
  5403  1555                     l4381:
  5404  1555  01A7               	clrf	check_password@count
  5405  1556                     l4383:
  5406                           
  5407                           ;main.c: 82: ;main.c: 83:         if(time_count_isr < 10000)
  5408  1556  3001               	movlw	1
  5409  1557  160A  158A  274E  160A  118A  	fcall	_read_matrix_keypad
  5410  155C  1283               	bcf	3,5	;RP0=0, select bank0
  5411  155D  1303               	bcf	3,6	;RP1=0, select bank0
  5412  155E  00A2               	movwf	??_check_password
  5413  155F  0822               	movf	??_check_password,w
  5414  1560  00A5               	movwf	check_password@key_state
  5415  1561                     l4385:
  5416                           
  5417                           ;main.c: 85:             clcd_putch('_', (0xC0 + 6+count));
  5418  1561  3004               	movlw	4
  5419  1562  0627               	xorwf	check_password@count,w
  5420  1563  1D03               	btfss	3,2
  5421  1564  2D66               	goto	u5571
  5422  1565  2D67               	goto	u5570
  5423  1566                     u5571:
  5424  1566  2D68               	goto	l4389
  5425  1567                     u5570:
  5426  1567  2DBD               	goto	l4411
  5427  1568                     l4389:
  5428                           
  5429                           ;main.c: 89:            clcd_putch(' ', (0xC0 + 6+count));
  5430  1568  3005               	movlw	5
  5431  1569  0625               	xorwf	check_password@key_state,w
  5432  156A  1D03               	btfss	3,2
  5433  156B  2D6D               	goto	u5581
  5434  156C  2D6E               	goto	u5580
  5435  156D                     u5581:
  5436  156D  2D86               	goto	l4397
  5437  156E                     u5580:
  5438  156E                     l4391:
  5439                           
  5440                           ;main.c: 90:         };main.c: 91:     }
  5441  156E  0827               	movf	check_password@count,w
  5442  156F  3EC6               	addlw	198
  5443  1570  00A2               	movwf	??_check_password
  5444  1571  0822               	movf	??_check_password,w
  5445  1572  00F6               	movwf	clcd_putch@addr
  5446  1573  302A               	movlw	42
  5447  1574  160A  158A  25D8  160A  118A  	fcall	_clcd_putch
  5448  1579                     l4393:
  5449                           
  5450                           ;main.c: 92:     if(org_password == temp_password )
  5451  1579  1283               	bcf	3,5	;RP0=0, select bank0
  5452  157A  1303               	bcf	3,6	;RP1=0, select bank0
  5453  157B  0826               	movf	check_password@temp_password,w
  5454  157C  00A2               	movwf	??_check_password
  5455  157D  0722               	addwf	??_check_password,w
  5456  157E  00A3               	movwf	??_check_password+1
  5457  157F  0823               	movf	??_check_password+1,w
  5458  1580  00A6               	movwf	check_password@temp_password
  5459  1581                     l4395:
  5460                           
  5461                           ;main.c: 93:         return 1;
  5462  1581  3001               	movlw	1
  5463  1582  00A2               	movwf	??_check_password
  5464  1583  0822               	movf	??_check_password,w
  5465  1584  07A7               	addwf	check_password@count,f
  5466                           
  5467                           ;main.c: 94:     return 0;
  5468  1585  2D56               	goto	l4383
  5469  1586                     l4397:
  5470                           
  5471                           ;main.c: 96: 
  5472  1586  3006               	movlw	6
  5473  1587  0625               	xorwf	check_password@key_state,w
  5474  1588  1D03               	btfss	3,2
  5475  1589  2D8B               	goto	u5591
  5476  158A  2D8C               	goto	u5590
  5477  158B                     u5591:
  5478  158B  2D9C               	goto	l4405
  5479  158C                     u5590:
  5480  158C                     l4399:
  5481                           
  5482                           ;main.c: 97:  void write_external_eeprom(unsigned int event_idx,unsigned int addr, char 
      +                          *gear);main.c: 98: {
  5483  158C  0827               	movf	check_password@count,w
  5484  158D  3EC6               	addlw	198
  5485  158E  00A2               	movwf	??_check_password
  5486  158F  0822               	movf	??_check_password,w
  5487  1590  00F6               	movwf	clcd_putch@addr
  5488  1591  302A               	movlw	42
  5489  1592  160A  158A  25D8  160A  118A  	fcall	_clcd_putch
  5490  1597                     l4401:
  5491                           
  5492                           ;main.c: 99: 
  5493  1597  1403               	setc
  5494  1598  1283               	bcf	3,5	;RP0=0, select bank0
  5495  1599  1303               	bcf	3,6	;RP1=0, select bank0
  5496  159A  0DA6               	rlf	check_password@temp_password,f
  5497  159B  2D81               	goto	l4395
  5498  159C                     l4405:
  5499                           
  5500                           ;main.c: 104: 
  5501  159C  3027               	movlw	39
  5502  159D  027B               	subwf	_time_count_isr+1,w
  5503  159E  3010               	movlw	16
  5504  159F  1903               	skipnz
  5505  15A0  027A               	subwf	_time_count_isr,w
  5506  15A1  1803               	skipnc
  5507  15A2  2DA4               	goto	u5601
  5508  15A3  2DA5               	goto	u5600
  5509  15A4                     u5601:
  5510  15A4  2DB1               	goto	l4409
  5511  15A5                     u5600:
  5512  15A5                     l4407:
  5513                           
  5514                           ;main.c: 105:     for(char i = 0; i < 8; i++);main.c: 106:     {
  5515  15A5  0827               	movf	check_password@count,w
  5516  15A6  3EC6               	addlw	198
  5517  15A7  00A2               	movwf	??_check_password
  5518  15A8  0822               	movf	??_check_password,w
  5519  15A9  00F6               	movwf	clcd_putch@addr
  5520  15AA  305F               	movlw	95
  5521  15AB  160A  158A  25D8  160A  118A  	fcall	_clcd_putch
  5522                           
  5523                           ;main.c: 107:         write_24c02(addr, time[i] );
  5524  15B0  2D56               	goto	l4383
  5525  15B1                     l4409:
  5526                           
  5527                           ;main.c: 109:     };main.c: 110: 
  5528  15B1  0827               	movf	check_password@count,w
  5529  15B2  3EC6               	addlw	198
  5530  15B3  00A2               	movwf	??_check_password
  5531  15B4  0822               	movf	??_check_password,w
  5532  15B5  00F6               	movwf	clcd_putch@addr
  5533  15B6  3020               	movlw	32
  5534  15B7  160A  158A  25D8  160A  118A  	fcall	_clcd_putch
  5535  15BC  2D56               	goto	l4383
  5536  15BD                     l4411:
  5537                           
  5538                           ;main.c: 113:     write_24c02(addr, gear[0] );
  5539  15BD  0824               	movf	check_password@org_password,w
  5540  15BE  0626               	xorwf	check_password@temp_password,w
  5541  15BF  1D03               	skipz
  5542  15C0  2DC2               	goto	u5611
  5543  15C1  2DC3               	goto	u5610
  5544  15C2                     u5611:
  5545  15C2  2DC8               	goto	l4417
  5546  15C3                     u5610:
  5547  15C3                     l4413:
  5548                           
  5549                           ;main.c: 114:     addr++;
  5550  15C3  3001               	movlw	1
  5551  15C4  00A0               	movwf	?_check_password
  5552  15C5  3000               	movlw	0
  5553  15C6  00A1               	movwf	?_check_password+1
  5554  15C7  2DCA               	goto	l231
  5555  15C8                     l4417:
  5556                           
  5557                           ;main.c: 115:     write_24c02(addr, gear[1] );
  5558  15C8  01A0               	clrf	?_check_password
  5559  15C9  01A1               	clrf	?_check_password+1
  5560  15CA                     l231:
  5561  15CA  0008               	return
  5562  15CB                     __end_of_check_password:
  5563                           
  5564                           	psect	text24
  5565  1F4E                     __ptext24:	
  5566 ;; *************** function _read_matrix_keypad *****************
  5567 ;; Defined at:
  5568 ;;		line 116 in file "matrix_keypad.c"
  5569 ;; Parameters:    Size  Location     Type
  5570 ;;  mode            1    wreg     unsigned char 
  5571 ;; Auto vars:     Size  Location     Type
  5572 ;;  mode            1    5[COMMON] unsigned char 
  5573 ;;  key             1    6[COMMON] unsigned char 
  5574 ;; Return value:  Size  Location     Type
  5575 ;;                  1    wreg      unsigned char 
  5576 ;; Registers used:
  5577 ;;		wreg, status,2, status,0, pclath, cstack
  5578 ;; Tracked objects:
  5579 ;;		On entry : 0/0
  5580 ;;		On exit  : 0/0
  5581 ;;		Unchanged: 0/0
  5582 ;; Data sizes:     COMMON   BANK0   BANK1   BANK3   BANK2
  5583 ;;      Params:         0       0       0       0       0
  5584 ;;      Locals:         2       0       0       0       0
  5585 ;;      Temps:          1       0       0       0       0
  5586 ;;      Totals:         3       0       0       0       0
  5587 ;;Total ram usage:        3 bytes
  5588 ;; Hardware stack levels used: 1
  5589 ;; Hardware stack levels required when called: 2
  5590 ;; This function calls:
  5591 ;;		_scan_keypad
  5592 ;; This function is called by:
  5593 ;;		_check_password
  5594 ;;		_main
  5595 ;; This function uses a non-reentrant model
  5596 ;;
  5597                           
  5598  1F4E                     _read_matrix_keypad:	
  5599                           ;psect for function _read_matrix_keypad
  5600                           
  5601                           
  5602                           ;incstack = 0
  5603                           ; Regs used in _read_matrix_keypad: [wreg+status,2+status,0+pclath+cstack]
  5604                           ;read_matrix_keypad@mode stored from wreg
  5605  1F4E  00F5               	movwf	read_matrix_keypad@mode
  5606  1F4F                     l4199:
  5607                           
  5608                           ;matrix_keypad.c: 116: unsigned char read_matrix_keypad(unsigned char mode);matrix_keypa
      +                          d.c: 117: {;matrix_keypad.c: 118:     static unsigned char once = 1;;matrix_keypad.c: 11
      +                          9:     unsigned char key;;matrix_keypad.c: 121:     key = scan_keypad();
  5609  1F4F  160A  118A  25CB  160A  158A  	fcall	_scan_keypad
  5610  1F54  00F4               	movwf	??_read_matrix_keypad
  5611  1F55  0874               	movf	??_read_matrix_keypad,w
  5612  1F56  00F6               	movwf	read_matrix_keypad@key
  5613  1F57                     l4201:
  5614                           
  5615                           ;matrix_keypad.c: 123:     if (mode == 0)
  5616  1F57  0875               	movf	read_matrix_keypad@mode,w
  5617  1F58  1D03               	btfss	3,2
  5618  1F59  2F5B               	goto	u5241
  5619  1F5A  2F5C               	goto	u5240
  5620  1F5B                     u5241:
  5621  1F5B  2F5E               	goto	l4209
  5622  1F5C                     u5240:
  5623  1F5C                     l4203:
  5624                           
  5625                           ;matrix_keypad.c: 124:     {;matrix_keypad.c: 125:         return key;
  5626  1F5C  0876               	movf	read_matrix_keypad@key,w
  5627  1F5D  2F76               	goto	l427
  5628  1F5E                     l4209:
  5629                           
  5630                           ;matrix_keypad.c: 128:     {;matrix_keypad.c: 129:         if ((key != 0xFF) && once)
  5631  1F5E  0A76               	incf	read_matrix_keypad@key,w
  5632  1F5F  1903               	btfsc	3,2
  5633  1F60  2F62               	goto	u5251
  5634  1F61  2F63               	goto	u5250
  5635  1F62                     u5251:
  5636  1F62  2F6C               	goto	l4221
  5637  1F63                     u5250:
  5638  1F63                     l4211:
  5639  1F63  1683               	bsf	3,5	;RP0=1, select bank3
  5640  1F64  1703               	bsf	3,6	;RP1=1, select bank3
  5641  1F65  0860               	movf	read_matrix_keypad@once^(0+384),w
  5642  1F66  1903               	btfsc	3,2
  5643  1F67  2F69               	goto	u5261
  5644  1F68  2F6A               	goto	u5260
  5645  1F69                     u5261:
  5646  1F69  2F6C               	goto	l4221
  5647  1F6A                     u5260:
  5648  1F6A                     l4213:
  5649                           
  5650                           ;matrix_keypad.c: 130:         {;matrix_keypad.c: 131:             once = 0;
  5651  1F6A  01E0               	clrf	read_matrix_keypad@once^(0+384)
  5652  1F6B  2F5C               	goto	l4203
  5653  1F6C                     l4221:
  5654  1F6C  0A76               	incf	read_matrix_keypad@key,w
  5655  1F6D  1D03               	btfss	3,2
  5656  1F6E  2F70               	goto	u5271
  5657  1F6F  2F71               	goto	u5270
  5658  1F70                     u5271:
  5659  1F70  2F75               	goto	l4225
  5660  1F71                     u5270:
  5661  1F71                     l4223:
  5662                           
  5663                           ;matrix_keypad.c: 136:         {;matrix_keypad.c: 137:             once = 1;
  5664  1F71  1683               	bsf	3,5	;RP0=1, select bank3
  5665  1F72  1703               	bsf	3,6	;RP1=1, select bank3
  5666  1F73  01E0               	clrf	read_matrix_keypad@once^(0+384)
  5667  1F74  0AE0               	incf	read_matrix_keypad@once^(0+384),f
  5668  1F75                     l4225:
  5669                           
  5670                           ;matrix_keypad.c: 141:     return 0xFF;
  5671  1F75  30FF               	movlw	255
  5672  1F76                     l427:
  5673  1F76  0008               	return
  5674  1F77                     __end_of_read_matrix_keypad:
  5675                           
  5676                           	psect	text25
  5677  15CB                     __ptext25:	
  5678 ;; *************** function _scan_keypad *****************
  5679 ;; Defined at:
  5680 ;;		line 29 in file "matrix_keypad.c"
  5681 ;; Parameters:    Size  Location     Type
  5682 ;;		None
  5683 ;; Auto vars:     Size  Location     Type
  5684 ;;  i               2    2[COMMON] int 
  5685 ;; Return value:  Size  Location     Type
  5686 ;;                  1    wreg      unsigned char 
  5687 ;; Registers used:
  5688 ;;		wreg, status,2, status,0
  5689 ;; Tracked objects:
  5690 ;;		On entry : 0/0
  5691 ;;		On exit  : 0/0
  5692 ;;		Unchanged: 0/0
  5693 ;; Data sizes:     COMMON   BANK0   BANK1   BANK3   BANK2
  5694 ;;      Params:         0       0       0       0       0
  5695 ;;      Locals:         2       0       0       0       0
  5696 ;;      Temps:          0       0       0       0       0
  5697 ;;      Totals:         2       0       0       0       0
  5698 ;;Total ram usage:        2 bytes
  5699 ;; Hardware stack levels used: 1
  5700 ;; Hardware stack levels required when called: 1
  5701 ;; This function calls:
  5702 ;;		Nothing
  5703 ;; This function is called by:
  5704 ;;		_read_matrix_keypad
  5705 ;; This function uses a non-reentrant model
  5706 ;;
  5707                           
  5708  15CB                     _scan_keypad:	
  5709                           ;psect for function _scan_keypad
  5710                           
  5711  15CB                     l4027:	
  5712                           ;incstack = 0
  5713                           ; Regs used in _scan_keypad: [wreg+status,2+status,0]
  5714                           
  5715                           
  5716                           ;matrix_keypad.c: 31:     int i;;matrix_keypad.c: 33:     RD3 = 0;
  5717  15CB  1283               	bcf	3,5	;RP0=0, select bank0
  5718  15CC  1303               	bcf	3,6	;RP1=0, select bank0
  5719  15CD  1188               	bcf	8,3	;volatile
  5720                           
  5721                           ;matrix_keypad.c: 34:     RD2 = 1;
  5722  15CE  1508               	bsf	8,2	;volatile
  5723                           
  5724                           ;matrix_keypad.c: 35:     RD1 = 1;
  5725  15CF  1488               	bsf	8,1	;volatile
  5726                           
  5727                           ;matrix_keypad.c: 36:     RD0 = 1;
  5728  15D0  1408               	bsf	8,0	;volatile
  5729  15D1                     l4029:
  5730                           
  5731                           ;matrix_keypad.c: 38:     for (i = 100; i--; );
  5732  15D1  3064               	movlw	100
  5733  15D2  00F2               	movwf	scan_keypad@i
  5734  15D3  3000               	movlw	0
  5735  15D4  00F3               	movwf	scan_keypad@i+1
  5736  15D5                     l4031:
  5737  15D5  30FF               	movlw	255
  5738  15D6  07F2               	addwf	scan_keypad@i,f
  5739  15D7  1803               	skipnc
  5740  15D8  0AF3               	incf	scan_keypad@i+1,f
  5741  15D9  30FF               	movlw	255
  5742  15DA  07F3               	addwf	scan_keypad@i+1,f
  5743  15DB  0A72               	incf	scan_keypad@i,w
  5744  15DC  1D03               	skipz
  5745  15DD  2DE2               	goto	u4981
  5746  15DE  0A73               	incf	scan_keypad@i+1,w
  5747  15DF  1D03               	btfss	3,2
  5748  15E0  2DE2               	goto	u4981
  5749  15E1  2DE3               	goto	u4980
  5750  15E2                     u4981:
  5751  15E2  2DD5               	goto	l4031
  5752  15E3                     u4980:
  5753  15E3                     l391:
  5754                           
  5755                           ;matrix_keypad.c: 40:     if (RB0 == 0)
  5756  15E3  1283               	bcf	3,5	;RP0=0, select bank0
  5757  15E4  1303               	bcf	3,6	;RP1=0, select bank0
  5758  15E5  1806               	btfsc	6,0	;volatile
  5759  15E6  2DE8               	goto	u4991
  5760  15E7  2DE9               	goto	u4990
  5761  15E8                     u4991:
  5762  15E8  2DEB               	goto	l392
  5763  15E9                     u4990:
  5764  15E9                     l4033:
  5765                           
  5766                           ;matrix_keypad.c: 41:     {;matrix_keypad.c: 42:         return 1;
  5767  15E9  3001               	movlw	1
  5768  15EA  2E76               	goto	l393
  5769  15EB                     l392:	
  5770                           ;matrix_keypad.c: 44:     else if (RB1 == 0)
  5771                           
  5772  15EB  1886               	btfsc	6,1	;volatile
  5773  15EC  2DEE               	goto	u5001
  5774  15ED  2DEF               	goto	u5000
  5775  15EE                     u5001:
  5776  15EE  2DF1               	goto	l395
  5777  15EF                     u5000:
  5778  15EF                     l4039:
  5779                           
  5780                           ;matrix_keypad.c: 45:     {;matrix_keypad.c: 46:         return 2;
  5781  15EF  3002               	movlw	2
  5782  15F0  2E76               	goto	l393
  5783  15F1                     l395:	
  5784                           ;matrix_keypad.c: 48:     else if (RB2 == 0)
  5785                           
  5786  15F1  1906               	btfsc	6,2	;volatile
  5787  15F2  2DF4               	goto	u5011
  5788  15F3  2DF5               	goto	u5010
  5789  15F4                     u5011:
  5790  15F4  2DF7               	goto	l394
  5791  15F5                     u5010:
  5792  15F5                     l4045:
  5793                           
  5794                           ;matrix_keypad.c: 49:     {;matrix_keypad.c: 50:         return 3;
  5795  15F5  3003               	movlw	3
  5796  15F6  2E76               	goto	l393
  5797  15F7                     l394:
  5798                           
  5799                           ;matrix_keypad.c: 53:     RD3 = 1;
  5800  15F7  1588               	bsf	8,3	;volatile
  5801                           
  5802                           ;matrix_keypad.c: 54:     RD2 = 0;
  5803  15F8  1108               	bcf	8,2	;volatile
  5804                           
  5805                           ;matrix_keypad.c: 55:     RD1 = 1;
  5806  15F9  1488               	bsf	8,1	;volatile
  5807                           
  5808                           ;matrix_keypad.c: 56:     RD0 = 1;
  5809  15FA  1408               	bsf	8,0	;volatile
  5810  15FB                     l4049:
  5811                           
  5812                           ;matrix_keypad.c: 58:     for (i = 100; i--; );
  5813  15FB  3064               	movlw	100
  5814  15FC  00F2               	movwf	scan_keypad@i
  5815  15FD  3000               	movlw	0
  5816  15FE  00F3               	movwf	scan_keypad@i+1
  5817  15FF                     l4051:
  5818  15FF  30FF               	movlw	255
  5819  1600  07F2               	addwf	scan_keypad@i,f
  5820  1601  1803               	skipnc
  5821  1602  0AF3               	incf	scan_keypad@i+1,f
  5822  1603  30FF               	movlw	255
  5823  1604  07F3               	addwf	scan_keypad@i+1,f
  5824  1605  0A72               	incf	scan_keypad@i,w
  5825  1606  1D03               	skipz
  5826  1607  2E0C               	goto	u5021
  5827  1608  0A73               	incf	scan_keypad@i+1,w
  5828  1609  1D03               	btfss	3,2
  5829  160A  2E0C               	goto	u5021
  5830  160B  2E0D               	goto	u5020
  5831  160C                     u5021:
  5832  160C  2DFF               	goto	l4051
  5833  160D                     u5020:
  5834  160D                     l400:
  5835                           
  5836                           ;matrix_keypad.c: 60:     if (RB0 == 0)
  5837  160D  1283               	bcf	3,5	;RP0=0, select bank0
  5838  160E  1303               	bcf	3,6	;RP1=0, select bank0
  5839  160F  1806               	btfsc	6,0	;volatile
  5840  1610  2E12               	goto	u5031
  5841  1611  2E13               	goto	u5030
  5842  1612                     u5031:
  5843  1612  2E15               	goto	l401
  5844  1613                     u5030:
  5845  1613                     l4053:
  5846                           
  5847                           ;matrix_keypad.c: 61:     {;matrix_keypad.c: 62:         return 4;
  5848  1613  3004               	movlw	4
  5849  1614  2E76               	goto	l393
  5850  1615                     l401:	
  5851                           ;matrix_keypad.c: 64:     else if (RB1 == 0)
  5852                           
  5853  1615  1886               	btfsc	6,1	;volatile
  5854  1616  2E18               	goto	u5041
  5855  1617  2E19               	goto	u5040
  5856  1618                     u5041:
  5857  1618  2E1B               	goto	l403
  5858  1619                     u5040:
  5859  1619                     l4059:
  5860                           
  5861                           ;matrix_keypad.c: 65:     {;matrix_keypad.c: 66:         return 5;
  5862  1619  3005               	movlw	5
  5863  161A  2E76               	goto	l393
  5864  161B                     l403:	
  5865                           ;matrix_keypad.c: 68:     else if (RB2 == 0)
  5866                           
  5867  161B  1906               	btfsc	6,2	;volatile
  5868  161C  2E1E               	goto	u5051
  5869  161D  2E1F               	goto	u5050
  5870  161E                     u5051:
  5871  161E  2E21               	goto	l402
  5872  161F                     u5050:
  5873  161F                     l4065:
  5874                           
  5875                           ;matrix_keypad.c: 69:     {;matrix_keypad.c: 70:         return 6;
  5876  161F  3006               	movlw	6
  5877  1620  2E76               	goto	l393
  5878  1621                     l402:
  5879                           
  5880                           ;matrix_keypad.c: 73:     RD3 = 1;
  5881  1621  1588               	bsf	8,3	;volatile
  5882                           
  5883                           ;matrix_keypad.c: 74:     RD2 = 1;
  5884  1622  1508               	bsf	8,2	;volatile
  5885                           
  5886                           ;matrix_keypad.c: 75:     RD1 = 0;
  5887  1623  1088               	bcf	8,1	;volatile
  5888                           
  5889                           ;matrix_keypad.c: 76:     RD0 = 1;
  5890  1624  1408               	bsf	8,0	;volatile
  5891  1625                     l4069:
  5892                           
  5893                           ;matrix_keypad.c: 78:     for (i = 100; i--; );
  5894  1625  3064               	movlw	100
  5895  1626  00F2               	movwf	scan_keypad@i
  5896  1627  3000               	movlw	0
  5897  1628  00F3               	movwf	scan_keypad@i+1
  5898  1629                     l4071:
  5899  1629  30FF               	movlw	255
  5900  162A  07F2               	addwf	scan_keypad@i,f
  5901  162B  1803               	skipnc
  5902  162C  0AF3               	incf	scan_keypad@i+1,f
  5903  162D  30FF               	movlw	255
  5904  162E  07F3               	addwf	scan_keypad@i+1,f
  5905  162F  0A72               	incf	scan_keypad@i,w
  5906  1630  1D03               	skipz
  5907  1631  2E36               	goto	u5061
  5908  1632  0A73               	incf	scan_keypad@i+1,w
  5909  1633  1D03               	btfss	3,2
  5910  1634  2E36               	goto	u5061
  5911  1635  2E37               	goto	u5060
  5912  1636                     u5061:
  5913  1636  2E29               	goto	l4071
  5914  1637                     u5060:
  5915  1637                     l408:
  5916                           
  5917                           ;matrix_keypad.c: 80:     if (RB0 == 0)
  5918  1637  1283               	bcf	3,5	;RP0=0, select bank0
  5919  1638  1303               	bcf	3,6	;RP1=0, select bank0
  5920  1639  1806               	btfsc	6,0	;volatile
  5921  163A  2E3C               	goto	u5071
  5922  163B  2E3D               	goto	u5070
  5923  163C                     u5071:
  5924  163C  2E3F               	goto	l409
  5925  163D                     u5070:
  5926  163D                     l4073:
  5927                           
  5928                           ;matrix_keypad.c: 81:     {;matrix_keypad.c: 82:         return 7;
  5929  163D  3007               	movlw	7
  5930  163E  2E76               	goto	l393
  5931  163F                     l409:	
  5932                           ;matrix_keypad.c: 84:     else if (RB1 == 0)
  5933                           
  5934  163F  1886               	btfsc	6,1	;volatile
  5935  1640  2E42               	goto	u5081
  5936  1641  2E43               	goto	u5080
  5937  1642                     u5081:
  5938  1642  2E45               	goto	l411
  5939  1643                     u5080:
  5940  1643                     l4079:
  5941                           
  5942                           ;matrix_keypad.c: 85:     {;matrix_keypad.c: 86:         return 8;
  5943  1643  3008               	movlw	8
  5944  1644  2E76               	goto	l393
  5945  1645                     l411:	
  5946                           ;matrix_keypad.c: 88:     else if (RB2 == 0)
  5947                           
  5948  1645  1906               	btfsc	6,2	;volatile
  5949  1646  2E48               	goto	u5091
  5950  1647  2E49               	goto	u5090
  5951  1648                     u5091:
  5952  1648  2E4B               	goto	l410
  5953  1649                     u5090:
  5954  1649                     l4085:
  5955                           
  5956                           ;matrix_keypad.c: 89:     {;matrix_keypad.c: 90:         return 9;
  5957  1649  3009               	movlw	9
  5958  164A  2E76               	goto	l393
  5959  164B                     l410:
  5960                           
  5961                           ;matrix_keypad.c: 93:     RD3 = 1;
  5962  164B  1588               	bsf	8,3	;volatile
  5963                           
  5964                           ;matrix_keypad.c: 94:     RD2 = 1;
  5965  164C  1508               	bsf	8,2	;volatile
  5966                           
  5967                           ;matrix_keypad.c: 95:     RD1 = 1;
  5968  164D  1488               	bsf	8,1	;volatile
  5969                           
  5970                           ;matrix_keypad.c: 96:     RD0 = 0;
  5971  164E  1008               	bcf	8,0	;volatile
  5972  164F                     l4089:
  5973                           
  5974                           ;matrix_keypad.c: 98:     for (i = 100; i--; );
  5975  164F  3064               	movlw	100
  5976  1650  00F2               	movwf	scan_keypad@i
  5977  1651  3000               	movlw	0
  5978  1652  00F3               	movwf	scan_keypad@i+1
  5979  1653                     l4091:
  5980  1653  30FF               	movlw	255
  5981  1654  07F2               	addwf	scan_keypad@i,f
  5982  1655  1803               	skipnc
  5983  1656  0AF3               	incf	scan_keypad@i+1,f
  5984  1657  30FF               	movlw	255
  5985  1658  07F3               	addwf	scan_keypad@i+1,f
  5986  1659  0A72               	incf	scan_keypad@i,w
  5987  165A  1D03               	skipz
  5988  165B  2E60               	goto	u5101
  5989  165C  0A73               	incf	scan_keypad@i+1,w
  5990  165D  1D03               	btfss	3,2
  5991  165E  2E60               	goto	u5101
  5992  165F  2E61               	goto	u5100
  5993  1660                     u5101:
  5994  1660  2E53               	goto	l4091
  5995  1661                     u5100:
  5996  1661                     l416:
  5997                           
  5998                           ;matrix_keypad.c: 100:     if (RB0 == 0)
  5999  1661  1283               	bcf	3,5	;RP0=0, select bank0
  6000  1662  1303               	bcf	3,6	;RP1=0, select bank0
  6001  1663  1806               	btfsc	6,0	;volatile
  6002  1664  2E66               	goto	u5111
  6003  1665  2E67               	goto	u5110
  6004  1666                     u5111:
  6005  1666  2E69               	goto	l417
  6006  1667                     u5110:
  6007  1667                     l4093:
  6008                           
  6009                           ;matrix_keypad.c: 101:     {;matrix_keypad.c: 102:         return '*';
  6010  1667  302A               	movlw	42
  6011  1668  2E76               	goto	l393
  6012  1669                     l417:	
  6013                           ;matrix_keypad.c: 104:     else if (RB1 == 0)
  6014                           
  6015  1669  1886               	btfsc	6,1	;volatile
  6016  166A  2E6C               	goto	u5121
  6017  166B  2E6D               	goto	u5120
  6018  166C                     u5121:
  6019  166C  2E6F               	goto	l419
  6020  166D                     u5120:
  6021  166D                     l4099:
  6022                           
  6023                           ;matrix_keypad.c: 105:     {;matrix_keypad.c: 106:         return 0;
  6024  166D  3000               	movlw	0
  6025  166E  2E76               	goto	l393
  6026  166F                     l419:	
  6027                           ;matrix_keypad.c: 108:     else if (RB2 == 0)
  6028                           
  6029  166F  1906               	btfsc	6,2	;volatile
  6030  1670  2E72               	goto	u5131
  6031  1671  2E73               	goto	u5130
  6032  1672                     u5131:
  6033  1672  2E75               	goto	l4109
  6034  1673                     u5130:
  6035  1673                     l4105:
  6036                           
  6037                           ;matrix_keypad.c: 109:     {;matrix_keypad.c: 110:         return '#';
  6038  1673  3023               	movlw	35
  6039  1674  2E76               	goto	l393
  6040  1675                     l4109:
  6041                           
  6042                           ;matrix_keypad.c: 113:     return 0xFF;
  6043  1675  30FF               	movlw	255
  6044  1676                     l393:
  6045  1676  0008               	return
  6046  1677                     __end_of_scan_keypad:
  6047                           
  6048                           	psect	text26
  6049  1F77                     __ptext26:	
  6050 ;; *************** function _read_24c02 *****************
  6051 ;; Defined at:
  6052 ;;		line 12 in file "a24c02.c"
  6053 ;; Parameters:    Size  Location     Type
  6054 ;;  addr            1    wreg     unsigned char 
  6055 ;; Auto vars:     Size  Location     Type
  6056 ;;  addr            1    6[COMMON] unsigned char 
  6057 ;;  data            1    7[COMMON] unsigned char 
  6058 ;; Return value:  Size  Location     Type
  6059 ;;                  1    wreg      unsigned char 
  6060 ;; Registers used:
  6061 ;;		wreg, status,2, status,0, pclath, cstack
  6062 ;; Tracked objects:
  6063 ;;		On entry : 0/0
  6064 ;;		On exit  : 0/0
  6065 ;;		Unchanged: 0/0
  6066 ;; Data sizes:     COMMON   BANK0   BANK1   BANK3   BANK2
  6067 ;;      Params:         0       0       0       0       0
  6068 ;;      Locals:         2       0       0       0       0
  6069 ;;      Temps:          1       0       0       0       0
  6070 ;;      Totals:         3       0       0       0       0
  6071 ;;Total ram usage:        3 bytes
  6072 ;; Hardware stack levels used: 1
  6073 ;; Hardware stack levels required when called: 4
  6074 ;; This function calls:
  6075 ;;		_i2c_read
  6076 ;;		_i2c_rep_start
  6077 ;;		_i2c_start
  6078 ;;		_i2c_stop
  6079 ;;		_i2c_write
  6080 ;; This function is called by:
  6081 ;;		_check_password
  6082 ;;		_main
  6083 ;; This function uses a non-reentrant model
  6084 ;;
  6085                           
  6086  1F77                     _read_24c02:	
  6087                           ;psect for function _read_24c02
  6088                           
  6089                           
  6090                           ;incstack = 0
  6091                           ; Regs used in _read_24c02: [wreg+status,2+status,0+pclath+cstack]
  6092                           ;read_24c02@addr stored from wreg
  6093  1F77  00F6               	movwf	read_24c02@addr
  6094  1F78                     l4137:
  6095                           
  6096                           ;a24c02.c: 12: unsigned char read_24c02(unsigned char addr);a24c02.c: 13: {;a24c02.c: 14
      +                          :     unsigned char data;;a24c02.c: 16:     i2c_start();
  6097  1F78  160A  158A  2573  160A  158A  	fcall	_i2c_start
  6098                           
  6099                           ;a24c02.c: 17:     i2c_write(0xA0);
  6100  1F7D  30A0               	movlw	160
  6101  1F7E  160A  158A  259A  160A  158A  	fcall	_i2c_write
  6102                           
  6103                           ;a24c02.c: 18:     i2c_write(addr);
  6104  1F83  0876               	movf	read_24c02@addr,w
  6105  1F84  160A  158A  259A  160A  158A  	fcall	_i2c_write
  6106                           
  6107                           ;a24c02.c: 19:     i2c_rep_start();
  6108  1F89  160A  158A  258F  160A  158A  	fcall	_i2c_rep_start
  6109                           
  6110                           ;a24c02.c: 20:     i2c_write(0xA1);
  6111  1F8E  30A1               	movlw	161
  6112  1F8F  160A  158A  259A  160A  158A  	fcall	_i2c_write
  6113                           
  6114                           ;a24c02.c: 21:     data = i2c_read(0);
  6115  1F94  3000               	movlw	0
  6116  1F95  160A  158A  2692  160A  158A  	fcall	_i2c_read
  6117  1F9A  00F5               	movwf	??_read_24c02
  6118  1F9B  0875               	movf	??_read_24c02,w
  6119  1F9C  00F7               	movwf	read_24c02@data
  6120                           
  6121                           ;a24c02.c: 22:     i2c_stop();
  6122  1F9D  160A  158A  257C  160A  158A  	fcall	_i2c_stop
  6123  1FA2                     l4139:
  6124                           
  6125                           ;a24c02.c: 24:     return data;
  6126  1FA2  0877               	movf	read_24c02@data,w
  6127  1FA3                     l13:
  6128  1FA3  0008               	return
  6129  1FA4                     __end_of_read_24c02:
  6130                           
  6131                           	psect	text27
  6132  1D9A                     __ptext27:	
  6133 ;; *************** function _i2c_write *****************
  6134 ;; Defined at:
  6135 ;;		line 70 in file "i2c.c"
  6136 ;; Parameters:    Size  Location     Type
  6137 ;;  data            1    wreg     unsigned char 
  6138 ;; Auto vars:     Size  Location     Type
  6139 ;;  data            1    2[COMMON] unsigned char 
  6140 ;; Return value:  Size  Location     Type
  6141 ;;                  2    4[None  ] int 
  6142 ;; Registers used:
  6143 ;;		wreg, status,2, status,0, pclath, cstack
  6144 ;; Tracked objects:
  6145 ;;		On entry : 0/0
  6146 ;;		On exit  : 0/0
  6147 ;;		Unchanged: 0/0
  6148 ;; Data sizes:     COMMON   BANK0   BANK1   BANK3   BANK2
  6149 ;;      Params:         0       0       0       0       0
  6150 ;;      Locals:         1       0       0       0       0
  6151 ;;      Temps:          0       0       0       0       0
  6152 ;;      Totals:         1       0       0       0       0
  6153 ;;Total ram usage:        1 bytes
  6154 ;; Hardware stack levels used: 1
  6155 ;; Hardware stack levels required when called: 2
  6156 ;; This function calls:
  6157 ;;		_i2c_wait_for_idle
  6158 ;; This function is called by:
  6159 ;;		_read_24c02
  6160 ;;		_write_24c02
  6161 ;;		_read_ds1307
  6162 ;;		_write_ds1307
  6163 ;; This function uses a non-reentrant model
  6164 ;;
  6165                           
  6166  1D9A                     _i2c_write:	
  6167                           ;psect for function _i2c_write
  6168                           
  6169                           
  6170                           ;incstack = 0
  6171                           ; Regs used in _i2c_write: [wreg+status,2+status,0+pclath+cstack]
  6172                           ;i2c_write@data stored from wreg
  6173  1D9A  00F2               	movwf	i2c_write@data
  6174  1D9B                     l3951:
  6175                           
  6176                           ;i2c.c: 70: int i2c_write(unsigned char data);i2c.c: 71: {;i2c.c: 72:     i2c_wait_for_i
      +                          dle();
  6177  1D9B  160A  158A  25BB  160A  158A  	fcall	_i2c_wait_for_idle
  6178  1DA0                     l3953:
  6179                           
  6180                           ;i2c.c: 73:     SSPBUF = data;
  6181  1DA0  0872               	movf	i2c_write@data,w
  6182  1DA1  1283               	bcf	3,5	;RP0=0, select bank0
  6183  1DA2  1303               	bcf	3,6	;RP1=0, select bank0
  6184  1DA3  0093               	movwf	19	;volatile
  6185  1DA4                     l3955:
  6186  1DA4                     l152:	
  6187                           ;i2c.c: 75:     return !ACKSTAT;;	Return value of _i2c_write is never used
  6188                           
  6189  1DA4  0008               	return
  6190  1DA5                     __end_of_i2c_write:
  6191                           
  6192                           	psect	text28
  6193  1D8F                     __ptext28:	
  6194 ;; *************** function _i2c_rep_start *****************
  6195 ;; Defined at:
  6196 ;;		line 33 in file "i2c.c"
  6197 ;; Parameters:    Size  Location     Type
  6198 ;;		None
  6199 ;; Auto vars:     Size  Location     Type
  6200 ;;		None
  6201 ;; Return value:  Size  Location     Type
  6202 ;;                  1    wreg      void 
  6203 ;; Registers used:
  6204 ;;		wreg, status,2, status,0, pclath, cstack
  6205 ;; Tracked objects:
  6206 ;;		On entry : 0/0
  6207 ;;		On exit  : 0/0
  6208 ;;		Unchanged: 0/0
  6209 ;; Data sizes:     COMMON   BANK0   BANK1   BANK3   BANK2
  6210 ;;      Params:         0       0       0       0       0
  6211 ;;      Locals:         0       0       0       0       0
  6212 ;;      Temps:          0       0       0       0       0
  6213 ;;      Totals:         0       0       0       0       0
  6214 ;;Total ram usage:        0 bytes
  6215 ;; Hardware stack levels used: 1
  6216 ;; Hardware stack levels required when called: 3
  6217 ;; This function calls:
  6218 ;;		_i2c_start
  6219 ;;		_i2c_stop
  6220 ;; This function is called by:
  6221 ;;		_read_24c02
  6222 ;;		_read_ds1307
  6223 ;; This function uses a non-reentrant model
  6224 ;;
  6225                           
  6226  1D8F                     _i2c_rep_start:	
  6227                           ;psect for function _i2c_rep_start
  6228                           
  6229  1D8F                     l3959:	
  6230                           ;incstack = 0
  6231                           ; Regs used in _i2c_rep_start: [wreg+status,2+status,0+pclath+cstack]
  6232                           
  6233                           
  6234                           ;i2c.c: 35:     i2c_stop();
  6235  1D8F  160A  158A  257C  160A  158A  	fcall	_i2c_stop
  6236                           
  6237                           ;i2c.c: 36:     i2c_start();
  6238  1D94  160A  158A  2573  160A  158A  	fcall	_i2c_start
  6239  1D99                     l141:
  6240  1D99  0008               	return
  6241  1D9A                     __end_of_i2c_rep_start:
  6242                           
  6243                           	psect	text29
  6244  1D7C                     __ptext29:	
  6245 ;; *************** function _i2c_stop *****************
  6246 ;; Defined at:
  6247 ;;		line 40 in file "i2c.c"
  6248 ;; Parameters:    Size  Location     Type
  6249 ;;		None
  6250 ;; Auto vars:     Size  Location     Type
  6251 ;;		None
  6252 ;; Return value:  Size  Location     Type
  6253 ;;                  1    wreg      void 
  6254 ;; Registers used:
  6255 ;;		wreg, status,2, status,0, pclath, cstack
  6256 ;; Tracked objects:
  6257 ;;		On entry : 0/0
  6258 ;;		On exit  : 0/0
  6259 ;;		Unchanged: 0/0
  6260 ;; Data sizes:     COMMON   BANK0   BANK1   BANK3   BANK2
  6261 ;;      Params:         0       0       0       0       0
  6262 ;;      Locals:         0       0       0       0       0
  6263 ;;      Temps:          0       0       0       0       0
  6264 ;;      Totals:         0       0       0       0       0
  6265 ;;Total ram usage:        0 bytes
  6266 ;; Hardware stack levels used: 1
  6267 ;; Hardware stack levels required when called: 2
  6268 ;; This function calls:
  6269 ;;		_i2c_wait_for_idle
  6270 ;; This function is called by:
  6271 ;;		_read_24c02
  6272 ;;		_write_24c02
  6273 ;;		_read_ds1307
  6274 ;;		_write_ds1307
  6275 ;;		_i2c_rep_start
  6276 ;; This function uses a non-reentrant model
  6277 ;;
  6278                           
  6279  1D7C                     _i2c_stop:	
  6280                           ;psect for function _i2c_stop
  6281                           
  6282  1D7C                     l3947:	
  6283                           ;incstack = 0
  6284                           ; Regs used in _i2c_stop: [wreg+status,2+status,0+pclath+cstack]
  6285                           
  6286                           
  6287                           ;i2c.c: 42:     i2c_wait_for_idle();
  6288  1D7C  160A  158A  25BB  160A  158A  	fcall	_i2c_wait_for_idle
  6289  1D81                     l3949:
  6290                           
  6291                           ;i2c.c: 43:     PEN = 1;
  6292  1D81  1683               	bsf	3,5	;RP0=1, select bank1
  6293  1D82  1303               	bcf	3,6	;RP1=0, select bank1
  6294  1D83  1511               	bsf	17,2	;volatile
  6295  1D84                     l144:
  6296  1D84  0008               	return
  6297  1D85                     __end_of_i2c_stop:
  6298                           
  6299                           	psect	text30
  6300  1D73                     __ptext30:	
  6301 ;; *************** function _i2c_start *****************
  6302 ;; Defined at:
  6303 ;;		line 27 in file "i2c.c"
  6304 ;; Parameters:    Size  Location     Type
  6305 ;;		None
  6306 ;; Auto vars:     Size  Location     Type
  6307 ;;		None
  6308 ;; Return value:  Size  Location     Type
  6309 ;;                  1    wreg      void 
  6310 ;; Registers used:
  6311 ;;		wreg, status,2, status,0, pclath, cstack
  6312 ;; Tracked objects:
  6313 ;;		On entry : 0/0
  6314 ;;		On exit  : 0/0
  6315 ;;		Unchanged: 0/0
  6316 ;; Data sizes:     COMMON   BANK0   BANK1   BANK3   BANK2
  6317 ;;      Params:         0       0       0       0       0
  6318 ;;      Locals:         0       0       0       0       0
  6319 ;;      Temps:          0       0       0       0       0
  6320 ;;      Totals:         0       0       0       0       0
  6321 ;;Total ram usage:        0 bytes
  6322 ;; Hardware stack levels used: 1
  6323 ;; Hardware stack levels required when called: 2
  6324 ;; This function calls:
  6325 ;;		_i2c_wait_for_idle
  6326 ;; This function is called by:
  6327 ;;		_read_24c02
  6328 ;;		_write_24c02
  6329 ;;		_read_ds1307
  6330 ;;		_write_ds1307
  6331 ;;		_i2c_rep_start
  6332 ;; This function uses a non-reentrant model
  6333 ;;
  6334                           
  6335  1D73                     _i2c_start:	
  6336                           ;psect for function _i2c_start
  6337                           
  6338  1D73                     l3943:	
  6339                           ;incstack = 0
  6340                           ; Regs used in _i2c_start: [wreg+status,2+status,0+pclath+cstack]
  6341                           
  6342                           
  6343                           ;i2c.c: 29:     i2c_wait_for_idle();
  6344  1D73  160A  158A  25BB  160A  158A  	fcall	_i2c_wait_for_idle
  6345  1D78                     l3945:
  6346                           
  6347                           ;i2c.c: 30:     SEN = 1;
  6348  1D78  1683               	bsf	3,5	;RP0=1, select bank1
  6349  1D79  1303               	bcf	3,6	;RP1=0, select bank1
  6350  1D7A  1411               	bsf	17,0	;volatile
  6351  1D7B                     l138:
  6352  1D7B  0008               	return
  6353  1D7C                     __end_of_i2c_start:
  6354                           
  6355                           	psect	text31
  6356  1E92                     __ptext31:	
  6357 ;; *************** function _i2c_read *****************
  6358 ;; Defined at:
  6359 ;;		line 46 in file "i2c.c"
  6360 ;; Parameters:    Size  Location     Type
  6361 ;;  ack             1    wreg     unsigned char 
  6362 ;; Auto vars:     Size  Location     Type
  6363 ;;  ack             1    3[COMMON] unsigned char 
  6364 ;;  data            1    4[COMMON] unsigned char 
  6365 ;; Return value:  Size  Location     Type
  6366 ;;                  1    wreg      unsigned char 
  6367 ;; Registers used:
  6368 ;;		wreg, status,2, status,0, pclath, cstack
  6369 ;; Tracked objects:
  6370 ;;		On entry : 0/0
  6371 ;;		On exit  : 0/0
  6372 ;;		Unchanged: 0/0
  6373 ;; Data sizes:     COMMON   BANK0   BANK1   BANK3   BANK2
  6374 ;;      Params:         0       0       0       0       0
  6375 ;;      Locals:         2       0       0       0       0
  6376 ;;      Temps:          1       0       0       0       0
  6377 ;;      Totals:         3       0       0       0       0
  6378 ;;Total ram usage:        3 bytes
  6379 ;; Hardware stack levels used: 1
  6380 ;; Hardware stack levels required when called: 2
  6381 ;; This function calls:
  6382 ;;		_i2c_wait_for_idle
  6383 ;; This function is called by:
  6384 ;;		_read_24c02
  6385 ;;		_read_ds1307
  6386 ;; This function uses a non-reentrant model
  6387 ;;
  6388                           
  6389  1E92                     _i2c_read:	
  6390                           ;psect for function _i2c_read
  6391                           
  6392                           
  6393                           ;incstack = 0
  6394                           ; Regs used in _i2c_read: [wreg+status,2+status,0+pclath+cstack]
  6395                           ;i2c_read@ack stored from wreg
  6396  1E92  00F3               	movwf	i2c_read@ack
  6397  1E93                     l3961:
  6398                           
  6399                           ;i2c.c: 46: unsigned char i2c_read(unsigned char ack);i2c.c: 47: {;i2c.c: 48:     unsign
      +                          ed char data;;i2c.c: 50:     i2c_wait_for_idle();
  6400  1E93  160A  158A  25BB  160A  158A  	fcall	_i2c_wait_for_idle
  6401  1E98                     l3963:
  6402                           
  6403                           ;i2c.c: 51:     RCEN = 1;
  6404  1E98  1683               	bsf	3,5	;RP0=1, select bank1
  6405  1E99  1303               	bcf	3,6	;RP1=0, select bank1
  6406  1E9A  1591               	bsf	17,3	;volatile
  6407                           
  6408                           ;i2c.c: 53:     i2c_wait_for_idle();
  6409  1E9B  160A  158A  25BB  160A  158A  	fcall	_i2c_wait_for_idle
  6410  1EA0                     l3965:
  6411                           
  6412                           ;i2c.c: 54:     data = SSPBUF;
  6413  1EA0  1283               	bcf	3,5	;RP0=0, select bank0
  6414  1EA1  1303               	bcf	3,6	;RP1=0, select bank0
  6415  1EA2  0813               	movf	19,w	;volatile
  6416  1EA3  00F2               	movwf	??_i2c_read
  6417  1EA4  0872               	movf	??_i2c_read,w
  6418  1EA5  00F4               	movwf	i2c_read@data
  6419  1EA6                     l3967:
  6420                           
  6421                           ;i2c.c: 56:     if (ack == 1)
  6422  1EA6  0373               	decf	i2c_read@ack,w
  6423  1EA7  1D03               	btfss	3,2
  6424  1EA8  2EAA               	goto	u4941
  6425  1EA9  2EAB               	goto	u4940
  6426  1EAA                     u4941:
  6427  1EAA  2EAF               	goto	l147
  6428  1EAB                     u4940:
  6429  1EAB                     l3969:
  6430                           
  6431                           ;i2c.c: 57:     {;i2c.c: 58:         ACKDT = 1;
  6432  1EAB  1683               	bsf	3,5	;RP0=1, select bank1
  6433  1EAC  1303               	bcf	3,6	;RP1=0, select bank1
  6434  1EAD  1691               	bsf	17,5	;volatile
  6435                           
  6436                           ;i2c.c: 59:     }
  6437  1EAE  2EB2               	goto	l148
  6438  1EAF                     l147:	
  6439                           ;i2c.c: 60:     else
  6440                           
  6441                           
  6442                           ;i2c.c: 61:     {;i2c.c: 62:         ACKDT = 0;
  6443  1EAF  1683               	bsf	3,5	;RP0=1, select bank1
  6444  1EB0  1303               	bcf	3,6	;RP1=0, select bank1
  6445  1EB1  1291               	bcf	17,5	;volatile
  6446  1EB2                     l148:	
  6447                           ;i2c.c: 63:     }
  6448                           
  6449                           
  6450                           ;i2c.c: 65:     ACKEN = 1;
  6451  1EB2  1611               	bsf	17,4	;volatile
  6452  1EB3                     l3971:
  6453                           
  6454                           ;i2c.c: 67:     return data;
  6455  1EB3  0874               	movf	i2c_read@data,w
  6456  1EB4                     l149:
  6457  1EB4  0008               	return
  6458  1EB5                     __end_of_i2c_read:
  6459                           
  6460                           	psect	text32
  6461  1DBB                     __ptext32:	
  6462 ;; *************** function _i2c_wait_for_idle *****************
  6463 ;; Defined at:
  6464 ;;		line 21 in file "i2c.c"
  6465 ;; Parameters:    Size  Location     Type
  6466 ;;		None
  6467 ;; Auto vars:     Size  Location     Type
  6468 ;;		None
  6469 ;; Return value:  Size  Location     Type
  6470 ;;                  1    wreg      void 
  6471 ;; Registers used:
  6472 ;;		wreg, status,2
  6473 ;; Tracked objects:
  6474 ;;		On entry : 0/0
  6475 ;;		On exit  : 0/0
  6476 ;;		Unchanged: 0/0
  6477 ;; Data sizes:     COMMON   BANK0   BANK1   BANK3   BANK2
  6478 ;;      Params:         0       0       0       0       0
  6479 ;;      Locals:         0       0       0       0       0
  6480 ;;      Temps:          0       0       0       0       0
  6481 ;;      Totals:         0       0       0       0       0
  6482 ;;Total ram usage:        0 bytes
  6483 ;; Hardware stack levels used: 1
  6484 ;; Hardware stack levels required when called: 1
  6485 ;; This function calls:
  6486 ;;		Nothing
  6487 ;; This function is called by:
  6488 ;;		_i2c_start
  6489 ;;		_i2c_stop
  6490 ;;		_i2c_read
  6491 ;;		_i2c_write
  6492 ;; This function uses a non-reentrant model
  6493 ;;
  6494                           
  6495  1DBB                     _i2c_wait_for_idle:	
  6496                           ;psect for function _i2c_wait_for_idle
  6497                           
  6498  1DBB                     l3939:	
  6499                           ;incstack = 0
  6500                           ; Regs used in _i2c_wait_for_idle: [wreg+status,2]
  6501                           
  6502  1DBB                     l132:	
  6503                           ;i2c.c: 24:     while (R_nW || (SSPCON2 & 0x1F));
  6504                           
  6505  1DBB  1683               	bsf	3,5	;RP0=1, select bank1
  6506  1DBC  1303               	bcf	3,6	;RP1=0, select bank1
  6507  1DBD  1914               	btfsc	20,2	;volatile
  6508  1DBE  2DC0               	goto	u4921
  6509  1DBF  2DC1               	goto	u4920
  6510  1DC0                     u4921:
  6511  1DC0  2DBB               	goto	l132
  6512  1DC1                     u4920:
  6513  1DC1                     l3941:
  6514  1DC1  0811               	movf	17,w	;volatile
  6515  1DC2  391F               	andlw	31
  6516  1DC3  1D03               	btfss	3,2
  6517  1DC4  2DC6               	goto	u4931
  6518  1DC5  2DC7               	goto	u4930
  6519  1DC6                     u4931:
  6520  1DC6  2DBB               	goto	l132
  6521  1DC7                     u4930:
  6522  1DC7                     l135:
  6523  1DC7  0008               	return
  6524  1DC8                     __end_of_i2c_wait_for_idle:
  6525                           
  6526                           	psect	text33
  6527  1DD8                     __ptext33:	
  6528 ;; *************** function _clcd_putch *****************
  6529 ;; Defined at:
  6530 ;;		line 61 in file "clcd.c"
  6531 ;; Parameters:    Size  Location     Type
  6532 ;;  data            1    wreg     const unsigned char 
  6533 ;;  addr            1    6[COMMON] unsigned char 
  6534 ;; Auto vars:     Size  Location     Type
  6535 ;;  data            1    7[COMMON] const unsigned char 
  6536 ;; Return value:  Size  Location     Type
  6537 ;;                  1    wreg      void 
  6538 ;; Registers used:
  6539 ;;		wreg, status,2, status,0, pclath, cstack
  6540 ;; Tracked objects:
  6541 ;;		On entry : 0/0
  6542 ;;		On exit  : 0/0
  6543 ;;		Unchanged: 0/0
  6544 ;; Data sizes:     COMMON   BANK0   BANK1   BANK3   BANK2
  6545 ;;      Params:         1       0       0       0       0
  6546 ;;      Locals:         1       0       0       0       0
  6547 ;;      Temps:          0       0       0       0       0
  6548 ;;      Totals:         2       0       0       0       0
  6549 ;;Total ram usage:        2 bytes
  6550 ;; Hardware stack levels used: 1
  6551 ;; Hardware stack levels required when called: 2
  6552 ;; This function calls:
  6553 ;;		_clcd_write
  6554 ;; This function is called by:
  6555 ;;		_check_password
  6556 ;;		_main
  6557 ;; This function uses a non-reentrant model
  6558 ;;
  6559                           
  6560  1DD8                     _clcd_putch:	
  6561                           ;psect for function _clcd_putch
  6562                           
  6563                           
  6564                           ;incstack = 0
  6565                           ; Regs used in _clcd_putch: [wreg+status,2+status,0+pclath+cstack]
  6566                           ;clcd_putch@data stored from wreg
  6567  1DD8  00F7               	movwf	clcd_putch@data
  6568  1DD9                     l4155:
  6569                           
  6570                           ;clcd.c: 61: void clcd_putch(const char data, unsigned char addr);clcd.c: 62: {;clcd.c: 
      +                          63:     clcd_write(addr, 0);
  6571  1DD9  01F2               	clrf	clcd_write@mode
  6572  1DDA  0876               	movf	clcd_putch@addr,w
  6573  1DDB  120A  118A  27C8  160A  158A  	fcall	_clcd_write
  6574                           
  6575                           ;clcd.c: 64:     clcd_write(data, 1);
  6576  1DE0  01F2               	clrf	clcd_write@mode
  6577  1DE1  0AF2               	incf	clcd_write@mode,f
  6578  1DE2  0877               	movf	clcd_putch@data,w
  6579  1DE3  120A  118A  27C8  160A  158A  	fcall	_clcd_write
  6580  1DE8                     l71:
  6581  1DE8  0008               	return
  6582  1DE9                     __end_of_clcd_putch:
  6583                           
  6584                           	psect	text34
  6585  1FD1                     __ptext34:	
  6586 ;; *************** function _clcd_print *****************
  6587 ;; Defined at:
  6588 ;;		line 67 in file "clcd.c"
  6589 ;; Parameters:    Size  Location     Type
  6590 ;;  str             2    6[COMMON] PTR const unsigned char 
  6591 ;;		 -> STR_57(17), STR_56(17), STR_55(17), STR_54(17), 
  6592 ;;		 -> STR_53(17), STR_52(17), STR_51(17), STR_50(17), 
  6593 ;;		 -> STR_49(17), STR_48(3), STR_47(3), STR_46(3), 
  6594 ;;		 -> STR_45(17), STR_44(17), STR_43(17), main@log_display(17), 
  6595 ;;		 -> STR_42(17), STR_41(17), STR_40(18), STR_39(17), 
  6596 ;;		 -> STR_38(17), STR_37(17), STR_36(17), STR_35(17), 
  6597 ;;		 -> STR_34(17), STR_33(17), STR_32(17), STR_31(17), 
  6598 ;;		 -> STR_30(17), STR_29(17), STR_28(17), STR_27(17), 
  6599 ;;		 -> STR_26(17), STR_25(17), STR_24(17), STR_23(17), 
  6600 ;;		 -> STR_22(17), STR_21(17), STR_20(17), STR_19(17), 
  6601 ;;		 -> STR_18(17), STR_17(17), STR_16(17), STR_15(17), 
  6602 ;;		 -> STR_13(3), STR_12(3), STR_11(17), STR_10(17), 
  6603 ;;		 -> STR_9(17), STR_8(3), STR_7(3), STR_6(3), 
  6604 ;;		 -> STR_5(3), STR_4(3), STR_3(3), STR_2(3), 
  6605 ;;		 -> STR_1(17), time(9), buff(3), 
  6606 ;;  addr            1    8[COMMON] unsigned char 
  6607 ;; Auto vars:     Size  Location     Type
  6608 ;;		None
  6609 ;; Return value:  Size  Location     Type
  6610 ;;                  1    wreg      void 
  6611 ;; Registers used:
  6612 ;;		wreg, fsr0l, fsr0h, status,2, status,0, btemp+1, pclath, cstack
  6613 ;; Tracked objects:
  6614 ;;		On entry : 0/0
  6615 ;;		On exit  : 0/0
  6616 ;;		Unchanged: 0/0
  6617 ;; Data sizes:     COMMON   BANK0   BANK1   BANK3   BANK2
  6618 ;;      Params:         3       0       0       0       0
  6619 ;;      Locals:         0       0       0       0       0
  6620 ;;      Temps:          0       0       0       0       0
  6621 ;;      Totals:         3       0       0       0       0
  6622 ;;Total ram usage:        3 bytes
  6623 ;; Hardware stack levels used: 1
  6624 ;; Hardware stack levels required when called: 2
  6625 ;; This function calls:
  6626 ;;		_clcd_write
  6627 ;; This function is called by:
  6628 ;;		_display
  6629 ;;		_display_time
  6630 ;;		_check_password
  6631 ;;		_main
  6632 ;; This function uses a non-reentrant model
  6633 ;;
  6634                           
  6635  1FD1                     _clcd_print:	
  6636                           ;psect for function _clcd_print
  6637                           
  6638  1FD1                     l4157:	
  6639                           ;incstack = 0
  6640                           ; Regs used in _clcd_print: [wreg-fsr0h+status,2+status,0+btemp+1+pclath+cstack]
  6641                           
  6642                           
  6643                           ;clcd.c: 67: void clcd_print(const char *str, unsigned char addr);clcd.c: 68: {;clcd.c: 
      +                          69:     clcd_write(addr, 0);
  6644  1FD1  01F2               	clrf	clcd_write@mode
  6645  1FD2  0878               	movf	clcd_print@addr,w
  6646  1FD3  120A  118A  27C8  160A  158A  	fcall	_clcd_write
  6647                           
  6648                           ;clcd.c: 71:     while (*str != '\0')
  6649  1FD8  2FEF               	goto	l4163
  6650  1FD9                     l4159:
  6651                           
  6652                           ;clcd.c: 72:     {;clcd.c: 73:         clcd_write(*str, 1);
  6653  1FD9  01F2               	clrf	clcd_write@mode
  6654  1FDA  0AF2               	incf	clcd_write@mode,f
  6655  1FDB  0877               	movf	clcd_print@str+1,w
  6656  1FDC  00FF               	movwf	btemp+1
  6657  1FDD  0876               	movf	clcd_print@str,w
  6658  1FDE  0084               	movwf	4
  6659  1FDF  160A  158A  2000  160A  158A  	fcall	stringtab
  6660  1FE4  120A  118A  27C8  160A  158A  	fcall	_clcd_write
  6661  1FE9                     l4161:
  6662                           
  6663                           ;clcd.c: 74:         str++;
  6664  1FE9  3001               	movlw	1
  6665  1FEA  07F6               	addwf	clcd_print@str,f
  6666  1FEB  1803               	skipnc
  6667  1FEC  0AF7               	incf	clcd_print@str+1,f
  6668  1FED  3000               	movlw	0
  6669  1FEE  07F7               	addwf	clcd_print@str+1,f
  6670  1FEF                     l4163:
  6671                           
  6672                           ;clcd.c: 71:     while (*str != '\0')
  6673  1FEF  0877               	movf	clcd_print@str+1,w
  6674  1FF0  1283               	bcf	3,5	;RP0=0, select bank0
  6675  1FF1  1303               	bcf	3,6	;RP1=0, select bank0
  6676  1FF2  00FF               	movwf	btemp+1
  6677  1FF3  0876               	movf	clcd_print@str,w
  6678  1FF4  0084               	movwf	4
  6679  1FF5  160A  158A  2000  160A  158A  	fcall	stringtab
  6680  1FFA  3A00               	xorlw	0
  6681  1FFB  1D03               	skipz
  6682  1FFC  2FFE               	goto	u5211
  6683  1FFD  2FFF               	goto	u5210
  6684  1FFE                     u5211:
  6685  1FFE  2FD9               	goto	l4159
  6686  1FFF                     u5210:
  6687  1FFF                     l77:
  6688  1FFF  0008               	return
  6689  2000                     __end_of_clcd_print:
  6690                           
  6691                           	psect	text35
  6692  07C8                     __ptext35:	
  6693 ;; *************** function _clcd_write *****************
  6694 ;; Defined at:
  6695 ;;		line 9 in file "clcd.c"
  6696 ;; Parameters:    Size  Location     Type
  6697 ;;  byte            1    wreg     unsigned char 
  6698 ;;  mode            1    2[COMMON] unsigned char 
  6699 ;; Auto vars:     Size  Location     Type
  6700 ;;  byte            1    5[COMMON] unsigned char 
  6701 ;; Return value:  Size  Location     Type
  6702 ;;                  1    wreg      void 
  6703 ;; Registers used:
  6704 ;;		wreg, status,2, status,0
  6705 ;; Tracked objects:
  6706 ;;		On entry : 0/0
  6707 ;;		On exit  : 0/0
  6708 ;;		Unchanged: 0/0
  6709 ;; Data sizes:     COMMON   BANK0   BANK1   BANK3   BANK2
  6710 ;;      Params:         1       0       0       0       0
  6711 ;;      Locals:         1       0       0       0       0
  6712 ;;      Temps:          2       0       0       0       0
  6713 ;;      Totals:         4       0       0       0       0
  6714 ;;Total ram usage:        4 bytes
  6715 ;; Hardware stack levels used: 1
  6716 ;; Hardware stack levels required when called: 1
  6717 ;; This function calls:
  6718 ;;		Nothing
  6719 ;; This function is called by:
  6720 ;;		_init_display_controller
  6721 ;;		_clcd_putch
  6722 ;;		_clcd_print
  6723 ;; This function uses a non-reentrant model
  6724 ;;
  6725                           
  6726  07C8                     _clcd_write:	
  6727                           ;psect for function _clcd_write
  6728                           
  6729                           
  6730                           ;incstack = 0
  6731                           ; Regs used in _clcd_write: [wreg+status,2+status,0]
  6732                           ;clcd_write@byte stored from wreg
  6733  07C8  00F5               	movwf	clcd_write@byte
  6734  07C9                     l3975:
  6735                           
  6736                           ;clcd.c: 9: static void clcd_write(unsigned char byte, unsigned char mode);clcd.c: 10: {
      +                          ;clcd.c: 11:     RE2 = mode;
  6737  07C9  1872               	btfsc	clcd_write@mode,0
  6738  07CA  2FCC               	goto	u4951
  6739  07CB  2FD0               	goto	u4950
  6740  07CC                     u4951:
  6741  07CC  1283               	bcf	3,5	;RP0=0, select bank0
  6742  07CD  1303               	bcf	3,6	;RP1=0, select bank0
  6743  07CE  1509               	bsf	9,2	;volatile
  6744  07CF  2FD3               	goto	u4964
  6745  07D0                     u4950:
  6746  07D0  1283               	bcf	3,5	;RP0=0, select bank0
  6747  07D1  1303               	bcf	3,6	;RP1=0, select bank0
  6748  07D2  1109               	bcf	9,2	;volatile
  6749  07D3                     u4964:
  6750  07D3                     l3977:
  6751                           
  6752                           ;clcd.c: 13:     PORTD = byte & 0xF0;
  6753  07D3  0875               	movf	clcd_write@byte,w
  6754  07D4  39F0               	andlw	240
  6755  07D5  0088               	movwf	8	;volatile
  6756  07D6                     l3979:
  6757                           
  6758                           ;clcd.c: 14:     RE1 = 1;
  6759  07D6  1489               	bsf	9,1	;volatile
  6760  07D7                     l3981:
  6761                           
  6762                           ;clcd.c: 15:     _delay((unsigned long)((100)*(20000000/4000000.0)));
  6763  07D7  30A6               	movlw	166
  6764  07D8  00F3               	movwf	??_clcd_write
  6765  07D9                     u7437:
  6766  07D9  0BF3               	decfsz	??_clcd_write,f
  6767  07DA  2FD9               	goto	u7437
  6768  07DB  0000               	nop
  6769  07DC                     l3983:
  6770                           
  6771                           ;clcd.c: 16:     RE1 = 0;
  6772  07DC  1283               	bcf	3,5	;RP0=0, select bank0
  6773  07DD  1303               	bcf	3,6	;RP1=0, select bank0
  6774  07DE  1089               	bcf	9,1	;volatile
  6775  07DF                     l3985:
  6776                           
  6777                           ;clcd.c: 18:     PORTD = (byte & 0x0F) << 4;
  6778  07DF  0875               	movf	clcd_write@byte,w
  6779  07E0  390F               	andlw	15
  6780  07E1  00F3               	movwf	??_clcd_write
  6781  07E2  3003               	movlw	3
  6782  07E3                     u4975:
  6783  07E3  1003               	clrc
  6784  07E4  0DF3               	rlf	??_clcd_write,f
  6785  07E5  3EFF               	addlw	-1
  6786  07E6  1D03               	skipz
  6787  07E7  2FE3               	goto	u4975
  6788  07E8  1003               	clrc
  6789  07E9  0D73               	rlf	??_clcd_write,w
  6790  07EA  0088               	movwf	8	;volatile
  6791  07EB                     l3987:
  6792                           
  6793                           ;clcd.c: 19:     RE1 = 1;
  6794  07EB  1489               	bsf	9,1	;volatile
  6795  07EC                     l3989:
  6796                           
  6797                           ;clcd.c: 20:     _delay((unsigned long)((100)*(20000000/4000000.0)));
  6798  07EC  30A6               	movlw	166
  6799  07ED  00F3               	movwf	??_clcd_write
  6800  07EE                     u7447:
  6801  07EE  0BF3               	decfsz	??_clcd_write,f
  6802  07EF  2FEE               	goto	u7447
  6803  07F0  0000               	nop
  6804  07F1                     l3991:
  6805                           
  6806                           ;clcd.c: 21:     RE1 = 0;
  6807  07F1  1283               	bcf	3,5	;RP0=0, select bank0
  6808  07F2  1303               	bcf	3,6	;RP1=0, select bank0
  6809  07F3  1089               	bcf	9,1	;volatile
  6810  07F4                     l3993:
  6811                           
  6812                           ;clcd.c: 23:     _delay((unsigned long)((4100)*(20000000/4000000.0)));
  6813  07F4  301B               	movlw	27
  6814  07F5  00F4               	movwf	??_clcd_write+1
  6815  07F6  309E               	movlw	158
  6816  07F7  00F3               	movwf	??_clcd_write
  6817  07F8                     u7457:
  6818  07F8  0BF3               	decfsz	??_clcd_write,f
  6819  07F9  2FF8               	goto	u7457
  6820  07FA  0BF4               	decfsz	??_clcd_write+1,f
  6821  07FB  2FF8               	goto	u7457
  6822  07FC  0000               	nop
  6823  07FD                     l62:
  6824  07FD  0008               	return
  6825  07FE                     __end_of_clcd_write:
  6826                           
  6827                           	psect	text36
  6828  1677                     __ptext36:	
  6829 ;; *************** function ___xxtofl *****************
  6830 ;; Defined at:
  6831 ;;		line 10 in file "/opt/microchip/xc8/v2.36/pic/sources/c90/common/xxtofl.c"
  6832 ;; Parameters:    Size  Location     Type
  6833 ;;  sign            1    wreg     unsigned char 
  6834 ;;  val             4    0[BANK0 ] long 
  6835 ;; Auto vars:     Size  Location     Type
  6836 ;;  sign            1    8[BANK0 ] unsigned char 
  6837 ;;  arg             4   10[BANK0 ] unsigned long 
  6838 ;;  exp             1    9[BANK0 ] unsigned char 
  6839 ;; Return value:  Size  Location     Type
  6840 ;;                  4    0[BANK0 ] unsigned char 
  6841 ;; Registers used:
  6842 ;;		wreg, status,2, status,0
  6843 ;; Tracked objects:
  6844 ;;		On entry : 0/0
  6845 ;;		On exit  : 0/0
  6846 ;;		Unchanged: 0/0
  6847 ;; Data sizes:     COMMON   BANK0   BANK1   BANK3   BANK2
  6848 ;;      Params:         0       4       0       0       0
  6849 ;;      Locals:         0       6       0       0       0
  6850 ;;      Temps:          0       4       0       0       0
  6851 ;;      Totals:         0      14       0       0       0
  6852 ;;Total ram usage:       14 bytes
  6853 ;; Hardware stack levels used: 1
  6854 ;; Hardware stack levels required when called: 1
  6855 ;; This function calls:
  6856 ;;		Nothing
  6857 ;; This function is called by:
  6858 ;;		_main
  6859 ;; This function uses a non-reentrant model
  6860 ;;
  6861                           
  6862  1677                     ___xxtofl:	
  6863                           ;psect for function ___xxtofl
  6864                           
  6865                           
  6866                           ;incstack = 0
  6867                           ; Regs used in ___xxtofl: [wreg+status,2+status,0]
  6868                           ;___xxtofl@sign stored from wreg
  6869  1677  1283               	bcf	3,5	;RP0=0, select bank0
  6870  1678  1303               	bcf	3,6	;RP1=0, select bank0
  6871  1679  00A8               	movwf	___xxtofl@sign
  6872  167A                     l4785:
  6873  167A  0828               	movf	___xxtofl@sign,w
  6874  167B  1903               	btfsc	3,2
  6875  167C  2E7E               	goto	u6401
  6876  167D  2E7F               	goto	u6400
  6877  167E                     u6401:
  6878  167E  2E93               	goto	l4791
  6879  167F                     u6400:
  6880  167F                     l4787:
  6881  167F  1FA3               	btfss	___xxtofl@val+3,7
  6882  1680  2E82               	goto	u6411
  6883  1681  2E83               	goto	u6410
  6884  1682                     u6411:
  6885  1682  2E93               	goto	l4791
  6886  1683                     u6410:
  6887  1683                     l4789:
  6888  1683  0920               	comf	___xxtofl@val,w
  6889  1684  00AA               	movwf	___xxtofl@arg
  6890  1685  0921               	comf	___xxtofl@val+1,w
  6891  1686  00AB               	movwf	___xxtofl@arg+1
  6892  1687  0922               	comf	___xxtofl@val+2,w
  6893  1688  00AC               	movwf	___xxtofl@arg+2
  6894  1689  0923               	comf	___xxtofl@val+3,w
  6895  168A  00AD               	movwf	___xxtofl@arg+3
  6896  168B  0AAA               	incf	___xxtofl@arg,f
  6897  168C  1903               	skipnz
  6898  168D  0AAB               	incf	___xxtofl@arg+1,f
  6899  168E  1903               	skipnz
  6900  168F  0AAC               	incf	___xxtofl@arg+2,f
  6901  1690  1903               	skipnz
  6902  1691  0AAD               	incf	___xxtofl@arg+3,f
  6903  1692  2E9B               	goto	l996
  6904  1693                     l4791:
  6905  1693  0823               	movf	___xxtofl@val+3,w
  6906  1694  00AD               	movwf	___xxtofl@arg+3
  6907  1695  0822               	movf	___xxtofl@val+2,w
  6908  1696  00AC               	movwf	___xxtofl@arg+2
  6909  1697  0821               	movf	___xxtofl@val+1,w
  6910  1698  00AB               	movwf	___xxtofl@arg+1
  6911  1699  0820               	movf	___xxtofl@val,w
  6912  169A  00AA               	movwf	___xxtofl@arg
  6913  169B                     l996:
  6914  169B  0823               	movf	___xxtofl@val+3,w
  6915  169C  0422               	iorwf	___xxtofl@val+2,w
  6916  169D  0421               	iorwf	___xxtofl@val+1,w
  6917  169E  0420               	iorwf	___xxtofl@val,w
  6918  169F  1D03               	skipz
  6919  16A0  2EA2               	goto	u6421
  6920  16A1  2EA3               	goto	u6420
  6921  16A2                     u6421:
  6922  16A2  2EAC               	goto	l4797
  6923  16A3                     u6420:
  6924  16A3                     l4793:
  6925  16A3  3000               	movlw	0
  6926  16A4  00A3               	movwf	?___xxtofl+3
  6927  16A5  3000               	movlw	0
  6928  16A6  00A2               	movwf	?___xxtofl+2
  6929  16A7  3000               	movlw	0
  6930  16A8  00A1               	movwf	?___xxtofl+1
  6931  16A9  3000               	movlw	0
  6932  16AA  00A0               	movwf	?___xxtofl
  6933  16AB  2F32               	goto	l998
  6934  16AC                     l4797:
  6935  16AC  3096               	movlw	150
  6936  16AD  00A4               	movwf	??___xxtofl
  6937  16AE  0824               	movf	??___xxtofl,w
  6938  16AF  00A9               	movwf	___xxtofl@exp
  6939  16B0  2EBE               	goto	l4801
  6940  16B1                     l4799:
  6941  16B1  3001               	movlw	1
  6942  16B2  00A4               	movwf	??___xxtofl
  6943  16B3  0824               	movf	??___xxtofl,w
  6944  16B4  07A9               	addwf	___xxtofl@exp,f
  6945  16B5  3001               	movlw	1
  6946  16B6                     u6435:
  6947  16B6  1003               	clrc
  6948  16B7  0CAD               	rrf	___xxtofl@arg+3,f
  6949  16B8  0CAC               	rrf	___xxtofl@arg+2,f
  6950  16B9  0CAB               	rrf	___xxtofl@arg+1,f
  6951  16BA  0CAA               	rrf	___xxtofl@arg,f
  6952  16BB  3EFF               	addlw	-1
  6953  16BC  1D03               	skipz
  6954  16BD  2EB6               	goto	u6435
  6955  16BE                     l4801:
  6956  16BE  30FE               	movlw	254
  6957  16BF  052D               	andwf	___xxtofl@arg+3,w
  6958  16C0  1D03               	btfss	3,2
  6959  16C1  2EC3               	goto	u6441
  6960  16C2  2EC4               	goto	u6440
  6961  16C3                     u6441:
  6962  16C3  2EB1               	goto	l4799
  6963  16C4                     u6440:
  6964  16C4  2EE0               	goto	l1002
  6965  16C5                     l4803:
  6966  16C5  3001               	movlw	1
  6967  16C6  00A4               	movwf	??___xxtofl
  6968  16C7  0824               	movf	??___xxtofl,w
  6969  16C8  07A9               	addwf	___xxtofl@exp,f
  6970  16C9                     l4805:
  6971  16C9  3001               	movlw	1
  6972  16CA  07AA               	addwf	___xxtofl@arg,f
  6973  16CB  3000               	movlw	0
  6974  16CC  1803               	skipnc
  6975  16CD  3001               	movlw	1
  6976  16CE  07AB               	addwf	___xxtofl@arg+1,f
  6977  16CF  3000               	movlw	0
  6978  16D0  1803               	skipnc
  6979  16D1  3001               	movlw	1
  6980  16D2  07AC               	addwf	___xxtofl@arg+2,f
  6981  16D3  3000               	movlw	0
  6982  16D4  1803               	skipnc
  6983  16D5  3001               	movlw	1
  6984  16D6  07AD               	addwf	___xxtofl@arg+3,f
  6985  16D7                     l4807:
  6986  16D7  3001               	movlw	1
  6987  16D8                     u6455:
  6988  16D8  1003               	clrc
  6989  16D9  0CAD               	rrf	___xxtofl@arg+3,f
  6990  16DA  0CAC               	rrf	___xxtofl@arg+2,f
  6991  16DB  0CAB               	rrf	___xxtofl@arg+1,f
  6992  16DC  0CAA               	rrf	___xxtofl@arg,f
  6993  16DD  3EFF               	addlw	-1
  6994  16DE  1D03               	skipz
  6995  16DF  2ED8               	goto	u6455
  6996  16E0                     l1002:
  6997  16E0  30FF               	movlw	255
  6998  16E1  052D               	andwf	___xxtofl@arg+3,w
  6999  16E2  1D03               	btfss	3,2
  7000  16E3  2EE5               	goto	u6461
  7001  16E4  2EE6               	goto	u6460
  7002  16E5                     u6461:
  7003  16E5  2EC5               	goto	l4803
  7004  16E6                     u6460:
  7005  16E6  2EF2               	goto	l4811
  7006  16E7                     l4809:
  7007  16E7  3001               	movlw	1
  7008  16E8  02A9               	subwf	___xxtofl@exp,f
  7009  16E9  3001               	movlw	1
  7010  16EA  00A4               	movwf	??___xxtofl
  7011  16EB                     u6475:
  7012  16EB  1003               	clrc
  7013  16EC  0DAA               	rlf	___xxtofl@arg,f
  7014  16ED  0DAB               	rlf	___xxtofl@arg+1,f
  7015  16EE  0DAC               	rlf	___xxtofl@arg+2,f
  7016  16EF  0DAD               	rlf	___xxtofl@arg+3,f
  7017  16F0  0BA4               	decfsz	??___xxtofl,f
  7018  16F1  2EEB               	goto	u6475
  7019  16F2                     l4811:
  7020  16F2  1BAC               	btfsc	___xxtofl@arg+2,7
  7021  16F3  2EF5               	goto	u6481
  7022  16F4  2EF6               	goto	u6480
  7023  16F5                     u6481:
  7024  16F5  2EFC               	goto	l1009
  7025  16F6                     u6480:
  7026  16F6                     l4813:
  7027  16F6  3002               	movlw	2
  7028  16F7  0229               	subwf	___xxtofl@exp,w
  7029  16F8  1803               	skipnc
  7030  16F9  2EFB               	goto	u6491
  7031  16FA  2EFC               	goto	u6490
  7032  16FB                     u6491:
  7033  16FB  2EE7               	goto	l4809
  7034  16FC                     u6490:
  7035  16FC                     l1009:
  7036  16FC  1829               	btfsc	___xxtofl@exp,0
  7037  16FD  2EFF               	goto	u6501
  7038  16FE  2F00               	goto	u6500
  7039  16FF                     u6501:
  7040  16FF  2F08               	goto	l1010
  7041  1700                     u6500:
  7042  1700                     l4815:
  7043  1700  30FF               	movlw	255
  7044  1701  05AA               	andwf	___xxtofl@arg,f
  7045  1702  30FF               	movlw	255
  7046  1703  05AB               	andwf	___xxtofl@arg+1,f
  7047  1704  307F               	movlw	127
  7048  1705  05AC               	andwf	___xxtofl@arg+2,f
  7049  1706  30FF               	movlw	255
  7050  1707  05AD               	andwf	___xxtofl@arg+3,f
  7051  1708                     l1010:
  7052  1708  1003               	clrc
  7053  1709  0CA9               	rrf	___xxtofl@exp,f
  7054  170A                     l4817:
  7055  170A  0829               	movf	___xxtofl@exp,w
  7056  170B  00A4               	movwf	??___xxtofl
  7057  170C  01A5               	clrf	??___xxtofl+1
  7058  170D  01A6               	clrf	??___xxtofl+2
  7059  170E  01A7               	clrf	??___xxtofl+3
  7060  170F  3018               	movlw	24
  7061  1710                     u6515:
  7062  1710  1003               	clrc
  7063  1711  0DA4               	rlf	??___xxtofl,f
  7064  1712  0DA5               	rlf	??___xxtofl+1,f
  7065  1713  0DA6               	rlf	??___xxtofl+2,f
  7066  1714  0DA7               	rlf	??___xxtofl+3,f
  7067  1715                     u6510:
  7068  1715  3EFF               	addlw	-1
  7069  1716  1D03               	skipz
  7070  1717  2F10               	goto	u6515
  7071  1718  0824               	movf	??___xxtofl,w
  7072  1719  04AA               	iorwf	___xxtofl@arg,f
  7073  171A  0825               	movf	??___xxtofl+1,w
  7074  171B  04AB               	iorwf	___xxtofl@arg+1,f
  7075  171C  0826               	movf	??___xxtofl+2,w
  7076  171D  04AC               	iorwf	___xxtofl@arg+2,f
  7077  171E  0827               	movf	??___xxtofl+3,w
  7078  171F  04AD               	iorwf	___xxtofl@arg+3,f
  7079  1720                     l4819:
  7080  1720  0828               	movf	___xxtofl@sign,w
  7081  1721  1903               	btfsc	3,2
  7082  1722  2F24               	goto	u6521
  7083  1723  2F25               	goto	u6520
  7084  1724                     u6521:
  7085  1724  2F2A               	goto	l4825
  7086  1725                     u6520:
  7087  1725                     l4821:
  7088  1725  1FA3               	btfss	___xxtofl@val+3,7
  7089  1726  2F28               	goto	u6531
  7090  1727  2F29               	goto	u6530
  7091  1728                     u6531:
  7092  1728  2F2A               	goto	l4825
  7093  1729                     u6530:
  7094  1729                     l4823:
  7095  1729  17AD               	bsf	___xxtofl@arg+3,7
  7096  172A                     l4825:
  7097  172A  082D               	movf	___xxtofl@arg+3,w
  7098  172B  00A3               	movwf	?___xxtofl+3
  7099  172C  082C               	movf	___xxtofl@arg+2,w
  7100  172D  00A2               	movwf	?___xxtofl+2
  7101  172E  082B               	movf	___xxtofl@arg+1,w
  7102  172F  00A1               	movwf	?___xxtofl+1
  7103  1730  082A               	movf	___xxtofl@arg,w
  7104  1731  00A0               	movwf	?___xxtofl
  7105  1732                     l998:
  7106  1732  0008               	return
  7107  1733                     __end_of___xxtofl:
  7108                           
  7109                           	psect	text37
  7110  1439                     __ptext37:	
  7111 ;; *************** function ___fltol *****************
  7112 ;; Defined at:
  7113 ;;		line 43 in file "/opt/microchip/xc8/v2.36/pic/sources/c90/common/fltol.c"
  7114 ;; Parameters:    Size  Location     Type
  7115 ;;  f1              4   66[BANK0 ] unsigned char 
  7116 ;; Auto vars:     Size  Location     Type
  7117 ;;  exp1            1    9[COMMON] unsigned char 
  7118 ;;  sign1           1    8[COMMON] unsigned char 
  7119 ;; Return value:  Size  Location     Type
  7120 ;;                  4   66[BANK0 ] long 
  7121 ;; Registers used:
  7122 ;;		wreg, status,2, status,0
  7123 ;; Tracked objects:
  7124 ;;		On entry : 0/0
  7125 ;;		On exit  : 0/0
  7126 ;;		Unchanged: 0/0
  7127 ;; Data sizes:     COMMON   BANK0   BANK1   BANK3   BANK2
  7128 ;;      Params:         0       4       0       0       0
  7129 ;;      Locals:         2       0       0       0       0
  7130 ;;      Temps:          0       5       0       0       0
  7131 ;;      Totals:         2       9       0       0       0
  7132 ;;Total ram usage:       11 bytes
  7133 ;; Hardware stack levels used: 1
  7134 ;; Hardware stack levels required when called: 1
  7135 ;; This function calls:
  7136 ;;		Nothing
  7137 ;; This function is called by:
  7138 ;;		_main
  7139 ;; This function uses a non-reentrant model
  7140 ;;
  7141                           
  7142  1439                     ___fltol:	
  7143                           ;psect for function ___fltol
  7144                           
  7145  1439                     l4467:	
  7146                           ;incstack = 0
  7147                           ; Regs used in ___fltol: [wreg+status,2+status,0]
  7148                           
  7149  1439  1003               	clrc
  7150  143A  1283               	bcf	3,5	;RP0=0, select bank0
  7151  143B  1303               	bcf	3,6	;RP1=0, select bank0
  7152  143C  0D64               	rlf	___fltol@f1+2,w
  7153  143D  0D65               	rlf	___fltol@f1+3,w
  7154  143E  00E6               	movwf	??___fltol
  7155  143F  0866               	movf	??___fltol,w
  7156  1440  00F9               	movwf	___fltol@exp1
  7157  1441  0879               	movf	___fltol@exp1,w
  7158  1442  1D03               	btfss	3,2
  7159  1443  2C45               	goto	u5641
  7160  1444  2C46               	goto	u5640
  7161  1445                     u5641:
  7162  1445  2C4F               	goto	l4473
  7163  1446                     u5640:
  7164  1446                     l4469:
  7165  1446  3000               	movlw	0
  7166  1447  00E5               	movwf	?___fltol+3
  7167  1448  3000               	movlw	0
  7168  1449  00E4               	movwf	?___fltol+2
  7169  144A  3000               	movlw	0
  7170  144B  00E3               	movwf	?___fltol+1
  7171  144C  3000               	movlw	0
  7172  144D  00E2               	movwf	?___fltol
  7173  144E  2CB4               	goto	l749
  7174  144F                     l4473:
  7175  144F  0862               	movf	___fltol@f1,w
  7176  1450  00E6               	movwf	??___fltol
  7177  1451  0863               	movf	___fltol@f1+1,w
  7178  1452  00E7               	movwf	??___fltol+1
  7179  1453  0864               	movf	___fltol@f1+2,w
  7180  1454  00E8               	movwf	??___fltol+2
  7181  1455  0865               	movf	___fltol@f1+3,w
  7182  1456  00E9               	movwf	??___fltol+3
  7183  1457  301F               	movlw	31
  7184  1458                     u5655:
  7185  1458  1003               	clrc
  7186  1459  0CE9               	rrf	??___fltol+3,f
  7187  145A  0CE8               	rrf	??___fltol+2,f
  7188  145B  0CE7               	rrf	??___fltol+1,f
  7189  145C  0CE6               	rrf	??___fltol,f
  7190  145D                     u5650:
  7191  145D  3EFF               	addlw	-1
  7192  145E  1D03               	skipz
  7193  145F  2C58               	goto	u5655
  7194  1460  0866               	movf	??___fltol,w
  7195  1461  00EA               	movwf	??___fltol+4
  7196  1462  086A               	movf	??___fltol+4,w
  7197  1463  00F8               	movwf	___fltol@sign1
  7198  1464                     l4475:
  7199  1464  17E4               	bsf	___fltol@f1+2,7
  7200  1465                     l4477:
  7201  1465  30FF               	movlw	255
  7202  1466  05E2               	andwf	___fltol@f1,f
  7203  1467  30FF               	movlw	255
  7204  1468  05E3               	andwf	___fltol@f1+1,f
  7205  1469  30FF               	movlw	255
  7206  146A  05E4               	andwf	___fltol@f1+2,f
  7207  146B  3000               	movlw	0
  7208  146C  05E5               	andwf	___fltol@f1+3,f
  7209  146D                     l4479:
  7210  146D  3096               	movlw	150
  7211  146E  02F9               	subwf	___fltol@exp1,f
  7212  146F                     l4481:
  7213  146F  1FF9               	btfss	___fltol@exp1,7
  7214  1470  2C72               	goto	u5661
  7215  1471  2C73               	goto	u5660
  7216  1472                     u5661:
  7217  1472  2C8D               	goto	l4491
  7218  1473                     u5660:
  7219  1473                     l4483:
  7220  1473  0879               	movf	___fltol@exp1,w
  7221  1474  3A80               	xorlw	128
  7222  1475  3E97               	addlw	151
  7223  1476  1803               	skipnc
  7224  1477  2C79               	goto	u5671
  7225  1478  2C7A               	goto	u5670
  7226  1479                     u5671:
  7227  1479  2C7B               	goto	l4489
  7228  147A                     u5670:
  7229  147A  2C46               	goto	l4469
  7230  147B                     l4489:
  7231  147B  3001               	movlw	1
  7232  147C                     u5685:
  7233  147C  1003               	clrc
  7234  147D  0CE5               	rrf	___fltol@f1+3,f
  7235  147E  0CE4               	rrf	___fltol@f1+2,f
  7236  147F  0CE3               	rrf	___fltol@f1+1,f
  7237  1480  0CE2               	rrf	___fltol@f1,f
  7238  1481  3EFF               	addlw	-1
  7239  1482  1D03               	skipz
  7240  1483  2C7C               	goto	u5685
  7241  1484  3001               	movlw	1
  7242  1485  00E6               	movwf	??___fltol
  7243  1486  0866               	movf	??___fltol,w
  7244  1487  07F9               	addwf	___fltol@exp1,f
  7245  1488  1D03               	btfss	3,2
  7246  1489  2C8B               	goto	u5691
  7247  148A  2C8C               	goto	u5690
  7248  148B                     u5691:
  7249  148B  2C7B               	goto	l4489
  7250  148C                     u5690:
  7251  148C  2CA4               	goto	l4499
  7252  148D                     l4491:
  7253  148D  3020               	movlw	32
  7254  148E  0279               	subwf	___fltol@exp1,w
  7255  148F  1C03               	skipc
  7256  1490  2C92               	goto	u5701
  7257  1491  2C93               	goto	u5700
  7258  1492                     u5701:
  7259  1492  2C9F               	goto	l756
  7260  1493                     u5700:
  7261  1493  2C46               	goto	l4469
  7262  1494                     l4497:
  7263  1494  3001               	movlw	1
  7264  1495  00E6               	movwf	??___fltol
  7265  1496                     u5715:
  7266  1496  1003               	clrc
  7267  1497  0DE2               	rlf	___fltol@f1,f
  7268  1498  0DE3               	rlf	___fltol@f1+1,f
  7269  1499  0DE4               	rlf	___fltol@f1+2,f
  7270  149A  0DE5               	rlf	___fltol@f1+3,f
  7271  149B  0BE6               	decfsz	??___fltol,f
  7272  149C  2C96               	goto	u5715
  7273  149D  3001               	movlw	1
  7274  149E  02F9               	subwf	___fltol@exp1,f
  7275  149F                     l756:
  7276  149F  0879               	movf	___fltol@exp1,w
  7277  14A0  1D03               	btfss	3,2
  7278  14A1  2CA3               	goto	u5721
  7279  14A2  2CA4               	goto	u5720
  7280  14A3                     u5721:
  7281  14A3  2C94               	goto	l4497
  7282  14A4                     u5720:
  7283  14A4                     l4499:
  7284  14A4  0878               	movf	___fltol@sign1,w
  7285  14A5  1903               	btfsc	3,2
  7286  14A6  2CA8               	goto	u5731
  7287  14A7  2CA9               	goto	u5730
  7288  14A8                     u5731:
  7289  14A8  2CB4               	goto	l759
  7290  14A9                     u5730:
  7291  14A9                     l4501:
  7292  14A9  09E2               	comf	___fltol@f1,f
  7293  14AA  09E3               	comf	___fltol@f1+1,f
  7294  14AB  09E4               	comf	___fltol@f1+2,f
  7295  14AC  09E5               	comf	___fltol@f1+3,f
  7296  14AD  0AE2               	incf	___fltol@f1,f
  7297  14AE  1903               	skipnz
  7298  14AF  0AE3               	incf	___fltol@f1+1,f
  7299  14B0  1903               	skipnz
  7300  14B1  0AE4               	incf	___fltol@f1+2,f
  7301  14B2  1903               	skipnz
  7302  14B3  0AE5               	incf	___fltol@f1+3,f
  7303  14B4                     l759:
  7304  14B4                     l749:
  7305  14B4  0008               	return
  7306  14B5                     __end_of___fltol:
  7307                           
  7308                           	psect	text38
  7309  0031                     __ptext38:	
  7310 ;; *************** function ___flmul *****************
  7311 ;; Defined at:
  7312 ;;		line 8 in file "/opt/microchip/xc8/v2.36/pic/sources/c90/common/sprcmul.c"
  7313 ;; Parameters:    Size  Location     Type
  7314 ;;  b               4   40[BANK0 ] long 
  7315 ;;  a               4   44[BANK0 ] long 
  7316 ;; Auto vars:     Size  Location     Type
  7317 ;;  prod            4   60[BANK0 ] struct .
  7318 ;;  grs             4   55[BANK0 ] unsigned long 
  7319 ;;  temp            2   64[BANK0 ] struct .
  7320 ;;  bexp            1   59[BANK0 ] unsigned char 
  7321 ;;  aexp            1   54[BANK0 ] unsigned char 
  7322 ;;  sign            1   53[BANK0 ] unsigned char 
  7323 ;; Return value:  Size  Location     Type
  7324 ;;                  4   40[BANK0 ] unsigned char 
  7325 ;; Registers used:
  7326 ;;		wreg, status,2, status,0, btemp+1, pclath, cstack
  7327 ;; Tracked objects:
  7328 ;;		On entry : 0/0
  7329 ;;		On exit  : 0/0
  7330 ;;		Unchanged: 0/0
  7331 ;; Data sizes:     COMMON   BANK0   BANK1   BANK3   BANK2
  7332 ;;      Params:         0       8       0       0       0
  7333 ;;      Locals:         0      13       0       0       0
  7334 ;;      Temps:          0       5       0       0       0
  7335 ;;      Totals:         0      26       0       0       0
  7336 ;;Total ram usage:       26 bytes
  7337 ;; Hardware stack levels used: 1
  7338 ;; Hardware stack levels required when called: 2
  7339 ;; This function calls:
  7340 ;;		__Umul8_16
  7341 ;; This function is called by:
  7342 ;;		_main
  7343 ;; This function uses a non-reentrant model
  7344 ;;
  7345                           
  7346  0031                     ___flmul:	
  7347                           ;psect for function ___flmul
  7348                           
  7349  0031                     l4645:	
  7350                           ;incstack = 0
  7351                           ; Regs used in ___flmul: [wreg+status,2+status,0+btemp+1+pclath+cstack]
  7352                           
  7353  0031  1283               	bcf	3,5	;RP0=0, select bank0
  7354  0032  1303               	bcf	3,6	;RP1=0, select bank0
  7355  0033  084B               	movf	___flmul@b+3,w
  7356  0034  3980               	andlw	128
  7357  0035  00D0               	movwf	??___flmul
  7358  0036  0850               	movf	??___flmul,w
  7359  0037  00D5               	movwf	___flmul@sign
  7360  0038                     l4647:
  7361  0038  084B               	movf	___flmul@b+3,w
  7362  0039  00D0               	movwf	??___flmul
  7363  003A  0750               	addwf	??___flmul,w
  7364  003B  00D1               	movwf	??___flmul+1
  7365  003C  0851               	movf	??___flmul+1,w
  7366  003D  00DB               	movwf	___flmul@bexp
  7367  003E                     l4649:
  7368  003E  1FCA               	btfss	___flmul@b+2,7
  7369  003F  2841               	goto	u6031
  7370  0040  2842               	goto	u6030
  7371  0041                     u6031:
  7372  0041  2843               	goto	l4653
  7373  0042                     u6030:
  7374  0042                     l4651:
  7375  0042  145B               	bsf	___flmul@bexp,0
  7376  0043                     l4653:
  7377  0043  085B               	movf	___flmul@bexp,w
  7378  0044  1903               	btfsc	3,2
  7379  0045  2847               	goto	u6041
  7380  0046  2848               	goto	u6040
  7381  0047                     u6041:
  7382  0047  2857               	goto	l4661
  7383  0048                     u6040:
  7384  0048                     l4655:
  7385  0048  0A5B               	incf	___flmul@bexp,w
  7386  0049  1D03               	btfss	3,2
  7387  004A  284C               	goto	u6051
  7388  004B  284D               	goto	u6050
  7389  004C                     u6051:
  7390  004C  2855               	goto	l4659
  7391  004D                     u6050:
  7392  004D                     l4657:
  7393  004D  3000               	movlw	0
  7394  004E  00CB               	movwf	___flmul@b+3
  7395  004F  3000               	movlw	0
  7396  0050  00CA               	movwf	___flmul@b+2
  7397  0051  3000               	movlw	0
  7398  0052  00C9               	movwf	___flmul@b+1
  7399  0053  3000               	movlw	0
  7400  0054  00C8               	movwf	___flmul@b
  7401  0055                     l4659:
  7402  0055  17CA               	bsf	___flmul@b+2,7
  7403  0056  285F               	goto	l4663
  7404  0057                     l4661:
  7405  0057  3000               	movlw	0
  7406  0058  00CB               	movwf	___flmul@b+3
  7407  0059  3000               	movlw	0
  7408  005A  00CA               	movwf	___flmul@b+2
  7409  005B  3000               	movlw	0
  7410  005C  00C9               	movwf	___flmul@b+1
  7411  005D  3000               	movlw	0
  7412  005E  00C8               	movwf	___flmul@b
  7413  005F                     l4663:
  7414  005F  084F               	movf	___flmul@a+3,w
  7415  0060  3980               	andlw	128
  7416  0061  00D0               	movwf	??___flmul
  7417  0062  0850               	movf	??___flmul,w
  7418  0063  06D5               	xorwf	___flmul@sign,f
  7419  0064                     l4665:
  7420  0064  084F               	movf	___flmul@a+3,w
  7421  0065  00D0               	movwf	??___flmul
  7422  0066  0750               	addwf	??___flmul,w
  7423  0067  00D1               	movwf	??___flmul+1
  7424  0068  0851               	movf	??___flmul+1,w
  7425  0069  00D6               	movwf	___flmul@aexp
  7426  006A                     l4667:
  7427  006A  1FCE               	btfss	___flmul@a+2,7
  7428  006B  286D               	goto	u6061
  7429  006C  286E               	goto	u6060
  7430  006D                     u6061:
  7431  006D  286F               	goto	l4671
  7432  006E                     u6060:
  7433  006E                     l4669:
  7434  006E  1456               	bsf	___flmul@aexp,0
  7435  006F                     l4671:
  7436  006F  0856               	movf	___flmul@aexp,w
  7437  0070  1903               	btfsc	3,2
  7438  0071  2873               	goto	u6071
  7439  0072  2874               	goto	u6070
  7440  0073                     u6071:
  7441  0073  2883               	goto	l4679
  7442  0074                     u6070:
  7443  0074                     l4673:
  7444  0074  0A56               	incf	___flmul@aexp,w
  7445  0075  1D03               	btfss	3,2
  7446  0076  2878               	goto	u6081
  7447  0077  2879               	goto	u6080
  7448  0078                     u6081:
  7449  0078  2881               	goto	l4677
  7450  0079                     u6080:
  7451  0079                     l4675:
  7452  0079  3000               	movlw	0
  7453  007A  00CF               	movwf	___flmul@a+3
  7454  007B  3000               	movlw	0
  7455  007C  00CE               	movwf	___flmul@a+2
  7456  007D  3000               	movlw	0
  7457  007E  00CD               	movwf	___flmul@a+1
  7458  007F  3000               	movlw	0
  7459  0080  00CC               	movwf	___flmul@a
  7460  0081                     l4677:
  7461  0081  17CE               	bsf	___flmul@a+2,7
  7462  0082  288B               	goto	l4681
  7463  0083                     l4679:
  7464  0083  3000               	movlw	0
  7465  0084  00CF               	movwf	___flmul@a+3
  7466  0085  3000               	movlw	0
  7467  0086  00CE               	movwf	___flmul@a+2
  7468  0087  3000               	movlw	0
  7469  0088  00CD               	movwf	___flmul@a+1
  7470  0089  3000               	movlw	0
  7471  008A  00CC               	movwf	___flmul@a
  7472  008B                     l4681:
  7473  008B  0856               	movf	___flmul@aexp,w
  7474  008C  1903               	btfsc	3,2
  7475  008D  288F               	goto	u6091
  7476  008E  2890               	goto	u6090
  7477  008F                     u6091:
  7478  008F  2895               	goto	l4685
  7479  0090                     u6090:
  7480  0090                     l4683:
  7481  0090  085B               	movf	___flmul@bexp,w
  7482  0091  1D03               	btfss	3,2
  7483  0092  2894               	goto	u6101
  7484  0093  2895               	goto	u6100
  7485  0094                     u6101:
  7486  0094  289E               	goto	l4689
  7487  0095                     u6100:
  7488  0095                     l4685:
  7489  0095  3000               	movlw	0
  7490  0096  00CB               	movwf	?___flmul+3
  7491  0097  3000               	movlw	0
  7492  0098  00CA               	movwf	?___flmul+2
  7493  0099  3000               	movlw	0
  7494  009A  00C9               	movwf	?___flmul+1
  7495  009B  3000               	movlw	0
  7496  009C  00C8               	movwf	?___flmul
  7497  009D  2B91               	goto	l952
  7498  009E                     l4689:
  7499  009E  0848               	movf	___flmul@b,w
  7500  009F  00D0               	movwf	??___flmul
  7501  00A0  0850               	movf	??___flmul,w
  7502  00A1  00F2               	movwf	__Umul8_16@multiplicand
  7503  00A2  084E               	movf	___flmul@a+2,w
  7504  00A3  160A  158A  2725  120A  118A  	fcall	__Umul8_16
  7505  00A8  0873               	movf	?__Umul8_16+1,w
  7506  00A9  1283               	bcf	3,5	;RP0=0, select bank0
  7507  00AA  1303               	bcf	3,6	;RP1=0, select bank0
  7508  00AB  00E1               	movwf	___flmul@temp+1
  7509  00AC  0872               	movf	?__Umul8_16,w
  7510  00AD  00E0               	movwf	___flmul@temp
  7511  00AE                     l4691:
  7512  00AE  0860               	movf	___flmul@temp,w
  7513  00AF  00D0               	movwf	??___flmul
  7514  00B0  01D1               	clrf	??___flmul+1
  7515  00B1  01D2               	clrf	??___flmul+2
  7516  00B2  01D3               	clrf	??___flmul+3
  7517  00B3  0853               	movf	??___flmul+3,w
  7518  00B4  00DA               	movwf	___flmul@grs+3
  7519  00B5  0852               	movf	??___flmul+2,w
  7520  00B6  00D9               	movwf	___flmul@grs+2
  7521  00B7  0851               	movf	??___flmul+1,w
  7522  00B8  00D8               	movwf	___flmul@grs+1
  7523  00B9  0850               	movf	??___flmul,w
  7524  00BA  00D7               	movwf	___flmul@grs
  7525  00BB                     l4693:
  7526  00BB  0861               	movf	___flmul@temp+1,w
  7527  00BC  00D0               	movwf	??___flmul
  7528  00BD  01D1               	clrf	??___flmul+1
  7529  00BE  01D2               	clrf	??___flmul+2
  7530  00BF  01D3               	clrf	??___flmul+3
  7531  00C0  0853               	movf	??___flmul+3,w
  7532  00C1  00DF               	movwf	___flmul@prod+3
  7533  00C2  0852               	movf	??___flmul+2,w
  7534  00C3  00DE               	movwf	___flmul@prod+2
  7535  00C4  0851               	movf	??___flmul+1,w
  7536  00C5  00DD               	movwf	___flmul@prod+1
  7537  00C6  0850               	movf	??___flmul,w
  7538  00C7  00DC               	movwf	___flmul@prod
  7539  00C8  0849               	movf	___flmul@b+1,w
  7540  00C9  00D0               	movwf	??___flmul
  7541  00CA  0850               	movf	??___flmul,w
  7542  00CB  00F2               	movwf	__Umul8_16@multiplicand
  7543  00CC  084D               	movf	___flmul@a+1,w
  7544  00CD  160A  158A  2725  120A  118A  	fcall	__Umul8_16
  7545  00D2  0873               	movf	?__Umul8_16+1,w
  7546  00D3  1283               	bcf	3,5	;RP0=0, select bank0
  7547  00D4  1303               	bcf	3,6	;RP1=0, select bank0
  7548  00D5  00E1               	movwf	___flmul@temp+1
  7549  00D6  0872               	movf	?__Umul8_16,w
  7550  00D7  00E0               	movwf	___flmul@temp
  7551  00D8                     l4695:
  7552  00D8  0860               	movf	___flmul@temp,w
  7553  00D9  00D0               	movwf	??___flmul
  7554  00DA  01D1               	clrf	??___flmul+1
  7555  00DB  01D2               	clrf	??___flmul+2
  7556  00DC  01D3               	clrf	??___flmul+3
  7557  00DD  0850               	movf	??___flmul,w
  7558  00DE  07D7               	addwf	___flmul@grs,f
  7559  00DF  0851               	movf	??___flmul+1,w
  7560  00E0  1103               	clrz
  7561  00E1  1803               	skipnc
  7562  00E2  3E01               	addlw	1
  7563  00E3  1903               	skipnz
  7564  00E4  28E6               	goto	u6111
  7565  00E5  07D8               	addwf	___flmul@grs+1,f
  7566  00E6                     u6111:
  7567  00E6  0852               	movf	??___flmul+2,w
  7568  00E7  1103               	clrz
  7569  00E8  1803               	skipnc
  7570  00E9  3E01               	addlw	1
  7571  00EA  1903               	skipnz
  7572  00EB  28ED               	goto	u6112
  7573  00EC  07D9               	addwf	___flmul@grs+2,f
  7574  00ED                     u6112:
  7575  00ED  0853               	movf	??___flmul+3,w
  7576  00EE  1103               	clrz
  7577  00EF  1803               	skipnc
  7578  00F0  3E01               	addlw	1
  7579  00F1  1903               	skipnz
  7580  00F2  28F4               	goto	u6113
  7581  00F3  07DA               	addwf	___flmul@grs+3,f
  7582  00F4                     u6113:
  7583  00F4                     l4697:
  7584  00F4  0861               	movf	___flmul@temp+1,w
  7585  00F5  00D0               	movwf	??___flmul
  7586  00F6  01D1               	clrf	??___flmul+1
  7587  00F7  01D2               	clrf	??___flmul+2
  7588  00F8  01D3               	clrf	??___flmul+3
  7589  00F9  0850               	movf	??___flmul,w
  7590  00FA  07DC               	addwf	___flmul@prod,f
  7591  00FB  0851               	movf	??___flmul+1,w
  7592  00FC  1103               	clrz
  7593  00FD  1803               	skipnc
  7594  00FE  3E01               	addlw	1
  7595  00FF  1903               	skipnz
  7596  0100  2902               	goto	u6121
  7597  0101  07DD               	addwf	___flmul@prod+1,f
  7598  0102                     u6121:
  7599  0102  0852               	movf	??___flmul+2,w
  7600  0103  1103               	clrz
  7601  0104  1803               	skipnc
  7602  0105  3E01               	addlw	1
  7603  0106  1903               	skipnz
  7604  0107  2909               	goto	u6122
  7605  0108  07DE               	addwf	___flmul@prod+2,f
  7606  0109                     u6122:
  7607  0109  0853               	movf	??___flmul+3,w
  7608  010A  1103               	clrz
  7609  010B  1803               	skipnc
  7610  010C  3E01               	addlw	1
  7611  010D  1903               	skipnz
  7612  010E  2910               	goto	u6123
  7613  010F  07DF               	addwf	___flmul@prod+3,f
  7614  0110                     u6123:
  7615  0110  084A               	movf	___flmul@b+2,w
  7616  0111  00D0               	movwf	??___flmul
  7617  0112  0850               	movf	??___flmul,w
  7618  0113  00F2               	movwf	__Umul8_16@multiplicand
  7619  0114  084C               	movf	___flmul@a,w
  7620  0115  160A  158A  2725  120A  118A  	fcall	__Umul8_16
  7621  011A  0873               	movf	?__Umul8_16+1,w
  7622  011B  1283               	bcf	3,5	;RP0=0, select bank0
  7623  011C  1303               	bcf	3,6	;RP1=0, select bank0
  7624  011D  00E1               	movwf	___flmul@temp+1
  7625  011E  0872               	movf	?__Umul8_16,w
  7626  011F  00E0               	movwf	___flmul@temp
  7627  0120                     l4699:
  7628  0120  0860               	movf	___flmul@temp,w
  7629  0121  00D0               	movwf	??___flmul
  7630  0122  01D1               	clrf	??___flmul+1
  7631  0123  01D2               	clrf	??___flmul+2
  7632  0124  01D3               	clrf	??___flmul+3
  7633  0125  0850               	movf	??___flmul,w
  7634  0126  07D7               	addwf	___flmul@grs,f
  7635  0127  0851               	movf	??___flmul+1,w
  7636  0128  1103               	clrz
  7637  0129  1803               	skipnc
  7638  012A  3E01               	addlw	1
  7639  012B  1903               	skipnz
  7640  012C  292E               	goto	u6131
  7641  012D  07D8               	addwf	___flmul@grs+1,f
  7642  012E                     u6131:
  7643  012E  0852               	movf	??___flmul+2,w
  7644  012F  1103               	clrz
  7645  0130  1803               	skipnc
  7646  0131  3E01               	addlw	1
  7647  0132  1903               	skipnz
  7648  0133  2935               	goto	u6132
  7649  0134  07D9               	addwf	___flmul@grs+2,f
  7650  0135                     u6132:
  7651  0135  0853               	movf	??___flmul+3,w
  7652  0136  1103               	clrz
  7653  0137  1803               	skipnc
  7654  0138  3E01               	addlw	1
  7655  0139  1903               	skipnz
  7656  013A  293C               	goto	u6133
  7657  013B  07DA               	addwf	___flmul@grs+3,f
  7658  013C                     u6133:
  7659  013C                     l4701:
  7660  013C  0861               	movf	___flmul@temp+1,w
  7661  013D  00D0               	movwf	??___flmul
  7662  013E  01D1               	clrf	??___flmul+1
  7663  013F  01D2               	clrf	??___flmul+2
  7664  0140  01D3               	clrf	??___flmul+3
  7665  0141  0850               	movf	??___flmul,w
  7666  0142  07DC               	addwf	___flmul@prod,f
  7667  0143  0851               	movf	??___flmul+1,w
  7668  0144  1103               	clrz
  7669  0145  1803               	skipnc
  7670  0146  3E01               	addlw	1
  7671  0147  1903               	skipnz
  7672  0148  294A               	goto	u6141
  7673  0149  07DD               	addwf	___flmul@prod+1,f
  7674  014A                     u6141:
  7675  014A  0852               	movf	??___flmul+2,w
  7676  014B  1103               	clrz
  7677  014C  1803               	skipnc
  7678  014D  3E01               	addlw	1
  7679  014E  1903               	skipnz
  7680  014F  2951               	goto	u6142
  7681  0150  07DE               	addwf	___flmul@prod+2,f
  7682  0151                     u6142:
  7683  0151  0853               	movf	??___flmul+3,w
  7684  0152  1103               	clrz
  7685  0153  1803               	skipnc
  7686  0154  3E01               	addlw	1
  7687  0155  1903               	skipnz
  7688  0156  2958               	goto	u6143
  7689  0157  07DF               	addwf	___flmul@prod+3,f
  7690  0158                     u6143:
  7691  0158                     l4703:
  7692  0158  3008               	movlw	8
  7693  0159  00D0               	movwf	??___flmul
  7694  015A                     u6155:
  7695  015A  1003               	clrc
  7696  015B  0DD7               	rlf	___flmul@grs,f
  7697  015C  0DD8               	rlf	___flmul@grs+1,f
  7698  015D  0DD9               	rlf	___flmul@grs+2,f
  7699  015E  0DDA               	rlf	___flmul@grs+3,f
  7700  015F  0BD0               	decfsz	??___flmul,f
  7701  0160  295A               	goto	u6155
  7702  0161                     l4705:
  7703  0161  0849               	movf	___flmul@b+1,w
  7704  0162  00D0               	movwf	??___flmul
  7705  0163  0850               	movf	??___flmul,w
  7706  0164  00F2               	movwf	__Umul8_16@multiplicand
  7707  0165  084C               	movf	___flmul@a,w
  7708  0166  160A  158A  2725  120A  118A  	fcall	__Umul8_16
  7709  016B  0873               	movf	?__Umul8_16+1,w
  7710  016C  1283               	bcf	3,5	;RP0=0, select bank0
  7711  016D  1303               	bcf	3,6	;RP1=0, select bank0
  7712  016E  00E1               	movwf	___flmul@temp+1
  7713  016F  0872               	movf	?__Umul8_16,w
  7714  0170  00E0               	movwf	___flmul@temp
  7715  0171                     l4707:
  7716  0171  0860               	movf	___flmul@temp,w
  7717  0172  00D0               	movwf	??___flmul
  7718  0173  0861               	movf	___flmul@temp+1,w
  7719  0174  00D1               	movwf	??___flmul+1
  7720  0175  01D2               	clrf	??___flmul+2
  7721  0176  01D3               	clrf	??___flmul+3
  7722  0177  0850               	movf	??___flmul,w
  7723  0178  07D7               	addwf	___flmul@grs,f
  7724  0179  0851               	movf	??___flmul+1,w
  7725  017A  1103               	clrz
  7726  017B  1803               	skipnc
  7727  017C  3E01               	addlw	1
  7728  017D  1903               	skipnz
  7729  017E  2980               	goto	u6161
  7730  017F  07D8               	addwf	___flmul@grs+1,f
  7731  0180                     u6161:
  7732  0180  0852               	movf	??___flmul+2,w
  7733  0181  1103               	clrz
  7734  0182  1803               	skipnc
  7735  0183  3E01               	addlw	1
  7736  0184  1903               	skipnz
  7737  0185  2987               	goto	u6162
  7738  0186  07D9               	addwf	___flmul@grs+2,f
  7739  0187                     u6162:
  7740  0187  0853               	movf	??___flmul+3,w
  7741  0188  1103               	clrz
  7742  0189  1803               	skipnc
  7743  018A  3E01               	addlw	1
  7744  018B  1903               	skipnz
  7745  018C  298E               	goto	u6163
  7746  018D  07DA               	addwf	___flmul@grs+3,f
  7747  018E                     u6163:
  7748  018E                     l4709:
  7749  018E  0848               	movf	___flmul@b,w
  7750  018F  00D0               	movwf	??___flmul
  7751  0190  0850               	movf	??___flmul,w
  7752  0191  00F2               	movwf	__Umul8_16@multiplicand
  7753  0192  084D               	movf	___flmul@a+1,w
  7754  0193  160A  158A  2725  120A  118A  	fcall	__Umul8_16
  7755  0198  0873               	movf	?__Umul8_16+1,w
  7756  0199  1283               	bcf	3,5	;RP0=0, select bank0
  7757  019A  1303               	bcf	3,6	;RP1=0, select bank0
  7758  019B  00E1               	movwf	___flmul@temp+1
  7759  019C  0872               	movf	?__Umul8_16,w
  7760  019D  00E0               	movwf	___flmul@temp
  7761  019E                     l4711:
  7762  019E  0860               	movf	___flmul@temp,w
  7763  019F  00D0               	movwf	??___flmul
  7764  01A0  0861               	movf	___flmul@temp+1,w
  7765  01A1  00D1               	movwf	??___flmul+1
  7766  01A2  01D2               	clrf	??___flmul+2
  7767  01A3  01D3               	clrf	??___flmul+3
  7768  01A4  0850               	movf	??___flmul,w
  7769  01A5  07D7               	addwf	___flmul@grs,f
  7770  01A6  0851               	movf	??___flmul+1,w
  7771  01A7  1103               	clrz
  7772  01A8  1803               	skipnc
  7773  01A9  3E01               	addlw	1
  7774  01AA  1903               	skipnz
  7775  01AB  29AD               	goto	u6171
  7776  01AC  07D8               	addwf	___flmul@grs+1,f
  7777  01AD                     u6171:
  7778  01AD  0852               	movf	??___flmul+2,w
  7779  01AE  1103               	clrz
  7780  01AF  1803               	skipnc
  7781  01B0  3E01               	addlw	1
  7782  01B1  1903               	skipnz
  7783  01B2  29B4               	goto	u6172
  7784  01B3  07D9               	addwf	___flmul@grs+2,f
  7785  01B4                     u6172:
  7786  01B4  0853               	movf	??___flmul+3,w
  7787  01B5  1103               	clrz
  7788  01B6  1803               	skipnc
  7789  01B7  3E01               	addlw	1
  7790  01B8  1903               	skipnz
  7791  01B9  29BB               	goto	u6173
  7792  01BA  07DA               	addwf	___flmul@grs+3,f
  7793  01BB                     u6173:
  7794  01BB                     l4713:
  7795  01BB  3008               	movlw	8
  7796  01BC  00D0               	movwf	??___flmul
  7797  01BD                     u6185:
  7798  01BD  1003               	clrc
  7799  01BE  0DD7               	rlf	___flmul@grs,f
  7800  01BF  0DD8               	rlf	___flmul@grs+1,f
  7801  01C0  0DD9               	rlf	___flmul@grs+2,f
  7802  01C1  0DDA               	rlf	___flmul@grs+3,f
  7803  01C2  0BD0               	decfsz	??___flmul,f
  7804  01C3  29BD               	goto	u6185
  7805  01C4  0848               	movf	___flmul@b,w
  7806  01C5  00D0               	movwf	??___flmul
  7807  01C6  0850               	movf	??___flmul,w
  7808  01C7  00F2               	movwf	__Umul8_16@multiplicand
  7809  01C8  084C               	movf	___flmul@a,w
  7810  01C9  160A  158A  2725  120A  118A  	fcall	__Umul8_16
  7811  01CE  0873               	movf	?__Umul8_16+1,w
  7812  01CF  1283               	bcf	3,5	;RP0=0, select bank0
  7813  01D0  1303               	bcf	3,6	;RP1=0, select bank0
  7814  01D1  00E1               	movwf	___flmul@temp+1
  7815  01D2  0872               	movf	?__Umul8_16,w
  7816  01D3  00E0               	movwf	___flmul@temp
  7817  01D4                     l4715:
  7818  01D4  0860               	movf	___flmul@temp,w
  7819  01D5  00D0               	movwf	??___flmul
  7820  01D6  0861               	movf	___flmul@temp+1,w
  7821  01D7  00D1               	movwf	??___flmul+1
  7822  01D8  01D2               	clrf	??___flmul+2
  7823  01D9  01D3               	clrf	??___flmul+3
  7824  01DA  0850               	movf	??___flmul,w
  7825  01DB  07D7               	addwf	___flmul@grs,f
  7826  01DC  0851               	movf	??___flmul+1,w
  7827  01DD  1103               	clrz
  7828  01DE  1803               	skipnc
  7829  01DF  3E01               	addlw	1
  7830  01E0  1903               	skipnz
  7831  01E1  29E3               	goto	u6191
  7832  01E2  07D8               	addwf	___flmul@grs+1,f
  7833  01E3                     u6191:
  7834  01E3  0852               	movf	??___flmul+2,w
  7835  01E4  1103               	clrz
  7836  01E5  1803               	skipnc
  7837  01E6  3E01               	addlw	1
  7838  01E7  1903               	skipnz
  7839  01E8  29EA               	goto	u6192
  7840  01E9  07D9               	addwf	___flmul@grs+2,f
  7841  01EA                     u6192:
  7842  01EA  0853               	movf	??___flmul+3,w
  7843  01EB  1103               	clrz
  7844  01EC  1803               	skipnc
  7845  01ED  3E01               	addlw	1
  7846  01EE  1903               	skipnz
  7847  01EF  29F1               	goto	u6193
  7848  01F0  07DA               	addwf	___flmul@grs+3,f
  7849  01F1                     u6193:
  7850  01F1                     l4717:
  7851  01F1  0849               	movf	___flmul@b+1,w
  7852  01F2  00D0               	movwf	??___flmul
  7853  01F3  0850               	movf	??___flmul,w
  7854  01F4  00F2               	movwf	__Umul8_16@multiplicand
  7855  01F5  084E               	movf	___flmul@a+2,w
  7856  01F6  160A  158A  2725  120A  118A  	fcall	__Umul8_16
  7857  01FB  0873               	movf	?__Umul8_16+1,w
  7858  01FC  1283               	bcf	3,5	;RP0=0, select bank0
  7859  01FD  1303               	bcf	3,6	;RP1=0, select bank0
  7860  01FE  00E1               	movwf	___flmul@temp+1
  7861  01FF  0872               	movf	?__Umul8_16,w
  7862  0200  00E0               	movwf	___flmul@temp
  7863  0201  0860               	movf	___flmul@temp,w
  7864  0202  00D0               	movwf	??___flmul
  7865  0203  0861               	movf	___flmul@temp+1,w
  7866  0204  00D1               	movwf	??___flmul+1
  7867  0205  01D2               	clrf	??___flmul+2
  7868  0206  01D3               	clrf	??___flmul+3
  7869  0207  0850               	movf	??___flmul,w
  7870  0208  07DC               	addwf	___flmul@prod,f
  7871  0209  0851               	movf	??___flmul+1,w
  7872  020A  1103               	clrz
  7873  020B  1803               	skipnc
  7874  020C  3E01               	addlw	1
  7875  020D  1903               	skipnz
  7876  020E  2A10               	goto	u6201
  7877  020F  07DD               	addwf	___flmul@prod+1,f
  7878  0210                     u6201:
  7879  0210  0852               	movf	??___flmul+2,w
  7880  0211  1103               	clrz
  7881  0212  1803               	skipnc
  7882  0213  3E01               	addlw	1
  7883  0214  1903               	skipnz
  7884  0215  2A17               	goto	u6202
  7885  0216  07DE               	addwf	___flmul@prod+2,f
  7886  0217                     u6202:
  7887  0217  0853               	movf	??___flmul+3,w
  7888  0218  1103               	clrz
  7889  0219  1803               	skipnc
  7890  021A  3E01               	addlw	1
  7891  021B  1903               	skipnz
  7892  021C  2A1E               	goto	u6203
  7893  021D  07DF               	addwf	___flmul@prod+3,f
  7894  021E                     u6203:
  7895  021E                     l4719:
  7896  021E  084A               	movf	___flmul@b+2,w
  7897  021F  00D0               	movwf	??___flmul
  7898  0220  0850               	movf	??___flmul,w
  7899  0221  00F2               	movwf	__Umul8_16@multiplicand
  7900  0222  084D               	movf	___flmul@a+1,w
  7901  0223  160A  158A  2725  120A  118A  	fcall	__Umul8_16
  7902  0228  0873               	movf	?__Umul8_16+1,w
  7903  0229  1283               	bcf	3,5	;RP0=0, select bank0
  7904  022A  1303               	bcf	3,6	;RP1=0, select bank0
  7905  022B  00E1               	movwf	___flmul@temp+1
  7906  022C  0872               	movf	?__Umul8_16,w
  7907  022D  00E0               	movwf	___flmul@temp
  7908  022E                     l4721:
  7909  022E  0860               	movf	___flmul@temp,w
  7910  022F  00D0               	movwf	??___flmul
  7911  0230  0861               	movf	___flmul@temp+1,w
  7912  0231  00D1               	movwf	??___flmul+1
  7913  0232  01D2               	clrf	??___flmul+2
  7914  0233  01D3               	clrf	??___flmul+3
  7915  0234  0850               	movf	??___flmul,w
  7916  0235  07DC               	addwf	___flmul@prod,f
  7917  0236  0851               	movf	??___flmul+1,w
  7918  0237  1103               	clrz
  7919  0238  1803               	skipnc
  7920  0239  3E01               	addlw	1
  7921  023A  1903               	skipnz
  7922  023B  2A3D               	goto	u6211
  7923  023C  07DD               	addwf	___flmul@prod+1,f
  7924  023D                     u6211:
  7925  023D  0852               	movf	??___flmul+2,w
  7926  023E  1103               	clrz
  7927  023F  1803               	skipnc
  7928  0240  3E01               	addlw	1
  7929  0241  1903               	skipnz
  7930  0242  2A44               	goto	u6212
  7931  0243  07DE               	addwf	___flmul@prod+2,f
  7932  0244                     u6212:
  7933  0244  0853               	movf	??___flmul+3,w
  7934  0245  1103               	clrz
  7935  0246  1803               	skipnc
  7936  0247  3E01               	addlw	1
  7937  0248  1903               	skipnz
  7938  0249  2A4B               	goto	u6213
  7939  024A  07DF               	addwf	___flmul@prod+3,f
  7940  024B                     u6213:
  7941  024B  084A               	movf	___flmul@b+2,w
  7942  024C  00D0               	movwf	??___flmul
  7943  024D  0850               	movf	??___flmul,w
  7944  024E  00F2               	movwf	__Umul8_16@multiplicand
  7945  024F  084E               	movf	___flmul@a+2,w
  7946  0250  160A  158A  2725  120A  118A  	fcall	__Umul8_16
  7947  0255  0873               	movf	?__Umul8_16+1,w
  7948  0256  1283               	bcf	3,5	;RP0=0, select bank0
  7949  0257  1303               	bcf	3,6	;RP1=0, select bank0
  7950  0258  00E1               	movwf	___flmul@temp+1
  7951  0259  0872               	movf	?__Umul8_16,w
  7952  025A  00E0               	movwf	___flmul@temp
  7953  025B                     l4723:
  7954  025B  0860               	movf	___flmul@temp,w
  7955  025C  00D0               	movwf	??___flmul
  7956  025D  0861               	movf	___flmul@temp+1,w
  7957  025E  00D1               	movwf	??___flmul+1
  7958  025F  01D2               	clrf	??___flmul+2
  7959  0260  01D3               	clrf	??___flmul+3
  7960  0261  3008               	movlw	8
  7961  0262                     u6225:
  7962  0262  1003               	clrc
  7963  0263  0DD0               	rlf	??___flmul,f
  7964  0264  0DD1               	rlf	??___flmul+1,f
  7965  0265  0DD2               	rlf	??___flmul+2,f
  7966  0266  0DD3               	rlf	??___flmul+3,f
  7967  0267                     u6220:
  7968  0267  3EFF               	addlw	-1
  7969  0268  1D03               	skipz
  7970  0269  2A62               	goto	u6225
  7971  026A  0850               	movf	??___flmul,w
  7972  026B  07DC               	addwf	___flmul@prod,f
  7973  026C  0851               	movf	??___flmul+1,w
  7974  026D  1103               	clrz
  7975  026E  1803               	skipnc
  7976  026F  3E01               	addlw	1
  7977  0270  1903               	skipnz
  7978  0271  2A73               	goto	u6231
  7979  0272  07DD               	addwf	___flmul@prod+1,f
  7980  0273                     u6231:
  7981  0273  0852               	movf	??___flmul+2,w
  7982  0274  1103               	clrz
  7983  0275  1803               	skipnc
  7984  0276  3E01               	addlw	1
  7985  0277  1903               	skipnz
  7986  0278  2A7A               	goto	u6232
  7987  0279  07DE               	addwf	___flmul@prod+2,f
  7988  027A                     u6232:
  7989  027A  0853               	movf	??___flmul+3,w
  7990  027B  1103               	clrz
  7991  027C  1803               	skipnc
  7992  027D  3E01               	addlw	1
  7993  027E  1903               	skipnz
  7994  027F  2A81               	goto	u6233
  7995  0280  07DF               	addwf	___flmul@prod+3,f
  7996  0281                     u6233:
  7997  0281                     l4725:
  7998  0281  0857               	movf	___flmul@grs,w
  7999  0282  00D0               	movwf	??___flmul
  8000  0283  0858               	movf	___flmul@grs+1,w
  8001  0284  00D1               	movwf	??___flmul+1
  8002  0285  0859               	movf	___flmul@grs+2,w
  8003  0286  00D2               	movwf	??___flmul+2
  8004  0287  085A               	movf	___flmul@grs+3,w
  8005  0288  00D3               	movwf	??___flmul+3
  8006  0289  3018               	movlw	24
  8007  028A                     u6245:
  8008  028A  1003               	clrc
  8009  028B  0CD3               	rrf	??___flmul+3,f
  8010  028C  0CD2               	rrf	??___flmul+2,f
  8011  028D  0CD1               	rrf	??___flmul+1,f
  8012  028E  0CD0               	rrf	??___flmul,f
  8013  028F                     u6240:
  8014  028F  3EFF               	addlw	-1
  8015  0290  1D03               	skipz
  8016  0291  2A8A               	goto	u6245
  8017  0292  0850               	movf	??___flmul,w
  8018  0293  07DC               	addwf	___flmul@prod,f
  8019  0294  0851               	movf	??___flmul+1,w
  8020  0295  1103               	clrz
  8021  0296  1803               	skipnc
  8022  0297  3E01               	addlw	1
  8023  0298  1903               	skipnz
  8024  0299  2A9B               	goto	u6251
  8025  029A  07DD               	addwf	___flmul@prod+1,f
  8026  029B                     u6251:
  8027  029B  0852               	movf	??___flmul+2,w
  8028  029C  1103               	clrz
  8029  029D  1803               	skipnc
  8030  029E  3E01               	addlw	1
  8031  029F  1903               	skipnz
  8032  02A0  2AA2               	goto	u6252
  8033  02A1  07DE               	addwf	___flmul@prod+2,f
  8034  02A2                     u6252:
  8035  02A2  0853               	movf	??___flmul+3,w
  8036  02A3  1103               	clrz
  8037  02A4  1803               	skipnc
  8038  02A5  3E01               	addlw	1
  8039  02A6  1903               	skipnz
  8040  02A7  2AA9               	goto	u6253
  8041  02A8  07DF               	addwf	___flmul@prod+3,f
  8042  02A9                     u6253:
  8043  02A9                     l4727:
  8044  02A9  3008               	movlw	8
  8045  02AA  00D0               	movwf	??___flmul
  8046  02AB                     u6265:
  8047  02AB  1003               	clrc
  8048  02AC  0DD7               	rlf	___flmul@grs,f
  8049  02AD  0DD8               	rlf	___flmul@grs+1,f
  8050  02AE  0DD9               	rlf	___flmul@grs+2,f
  8051  02AF  0DDA               	rlf	___flmul@grs+3,f
  8052  02B0  0BD0               	decfsz	??___flmul,f
  8053  02B1  2AAB               	goto	u6265
  8054  02B2                     l4729:
  8055  02B2  085B               	movf	___flmul@bexp,w
  8056  02B3  0756               	addwf	___flmul@aexp,w
  8057  02B4  00D0               	movwf	??___flmul
  8058  02B5  01D1               	clrf	??___flmul+1
  8059  02B6  0DD1               	rlf	??___flmul+1,f
  8060  02B7  0850               	movf	??___flmul,w
  8061  02B8  3E82               	addlw	130
  8062  02B9  00E0               	movwf	___flmul@temp
  8063  02BA  0851               	movf	??___flmul+1,w
  8064  02BB  1803               	skipnc
  8065  02BC  3E01               	addlw	1
  8066  02BD  3EFF               	addlw	255
  8067  02BE  00E1               	movwf	___flmul@temp+1
  8068  02BF  2ADD               	goto	l4741
  8069  02C0                     l4731:
  8070  02C0  3001               	movlw	1
  8071  02C1  00D0               	movwf	??___flmul
  8072  02C2                     u6275:
  8073  02C2  1003               	clrc
  8074  02C3  0DDC               	rlf	___flmul@prod,f
  8075  02C4  0DDD               	rlf	___flmul@prod+1,f
  8076  02C5  0DDE               	rlf	___flmul@prod+2,f
  8077  02C6  0DDF               	rlf	___flmul@prod+3,f
  8078  02C7  0BD0               	decfsz	??___flmul,f
  8079  02C8  2AC2               	goto	u6275
  8080  02C9                     l4733:
  8081  02C9  1FDA               	btfss	___flmul@grs+3,7
  8082  02CA  2ACC               	goto	u6281
  8083  02CB  2ACD               	goto	u6280
  8084  02CC                     u6281:
  8085  02CC  2ACE               	goto	l4737
  8086  02CD                     u6280:
  8087  02CD                     l4735:
  8088  02CD  145C               	bsf	___flmul@prod,0
  8089  02CE                     l4737:
  8090  02CE  3001               	movlw	1
  8091  02CF  00D0               	movwf	??___flmul
  8092  02D0                     u6295:
  8093  02D0  1003               	clrc
  8094  02D1  0DD7               	rlf	___flmul@grs,f
  8095  02D2  0DD8               	rlf	___flmul@grs+1,f
  8096  02D3  0DD9               	rlf	___flmul@grs+2,f
  8097  02D4  0DDA               	rlf	___flmul@grs+3,f
  8098  02D5  0BD0               	decfsz	??___flmul,f
  8099  02D6  2AD0               	goto	u6295
  8100  02D7                     l4739:
  8101  02D7  30FF               	movlw	255
  8102  02D8  07E0               	addwf	___flmul@temp,f
  8103  02D9  1803               	skipnc
  8104  02DA  0AE1               	incf	___flmul@temp+1,f
  8105  02DB  30FF               	movlw	255
  8106  02DC  07E1               	addwf	___flmul@temp+1,f
  8107  02DD                     l4741:
  8108  02DD  1FDE               	btfss	___flmul@prod+2,7
  8109  02DE  2AE0               	goto	u6301
  8110  02DF  2AE1               	goto	u6300
  8111  02E0                     u6301:
  8112  02E0  2AC0               	goto	l4731
  8113  02E1                     u6300:
  8114  02E1                     l4743:
  8115  02E1  01D6               	clrf	___flmul@aexp
  8116  02E2                     l4745:
  8117  02E2  1FDA               	btfss	___flmul@grs+3,7
  8118  02E3  2AE5               	goto	u6311
  8119  02E4  2AE6               	goto	u6310
  8120  02E5                     u6311:
  8121  02E5  2B02               	goto	l4753
  8122  02E6                     u6310:
  8123  02E6                     l4747:
  8124  02E6  30FF               	movlw	255
  8125  02E7  0557               	andwf	___flmul@grs,w
  8126  02E8  00D0               	movwf	??___flmul
  8127  02E9  30FF               	movlw	255
  8128  02EA  0558               	andwf	___flmul@grs+1,w
  8129  02EB  00D1               	movwf	??___flmul+1
  8130  02EC  30FF               	movlw	255
  8131  02ED  0559               	andwf	___flmul@grs+2,w
  8132  02EE  00D2               	movwf	??___flmul+2
  8133  02EF  307F               	movlw	127
  8134  02F0  055A               	andwf	___flmul@grs+3,w
  8135  02F1  00D3               	movwf	??___flmul+3
  8136  02F2  0853               	movf	??___flmul+3,w
  8137  02F3  0452               	iorwf	??___flmul+2,w
  8138  02F4  0451               	iorwf	??___flmul+1,w
  8139  02F5  0450               	iorwf	??___flmul,w
  8140  02F6  1903               	skipnz
  8141  02F7  2AF9               	goto	u6321
  8142  02F8  2AFA               	goto	u6320
  8143  02F9                     u6321:
  8144  02F9  2AFD               	goto	l958
  8145  02FA                     u6320:
  8146  02FA                     l4749:
  8147  02FA  01D6               	clrf	___flmul@aexp
  8148  02FB  0AD6               	incf	___flmul@aexp,f
  8149  02FC  2B02               	goto	l4753
  8150  02FD                     l958:
  8151  02FD  1C5C               	btfss	___flmul@prod,0
  8152  02FE  2B00               	goto	u6331
  8153  02FF  2B01               	goto	u6330
  8154  0300                     u6331:
  8155  0300  2B02               	goto	l4753
  8156  0301                     u6330:
  8157  0301  2AFA               	goto	l4749
  8158  0302                     l4753:
  8159  0302  0856               	movf	___flmul@aexp,w
  8160  0303  1903               	btfsc	3,2
  8161  0304  2B06               	goto	u6341
  8162  0305  2B07               	goto	u6340
  8163  0306                     u6341:
  8164  0306  2B38               	goto	l4763
  8165  0307                     u6340:
  8166  0307                     l4755:
  8167  0307  3001               	movlw	1
  8168  0308  07DC               	addwf	___flmul@prod,f
  8169  0309  3000               	movlw	0
  8170  030A  1803               	skipnc
  8171  030B  3001               	movlw	1
  8172  030C  07DD               	addwf	___flmul@prod+1,f
  8173  030D  3000               	movlw	0
  8174  030E  1803               	skipnc
  8175  030F  3001               	movlw	1
  8176  0310  07DE               	addwf	___flmul@prod+2,f
  8177  0311  3000               	movlw	0
  8178  0312  1803               	skipnc
  8179  0313  3001               	movlw	1
  8180  0314  07DF               	addwf	___flmul@prod+3,f
  8181  0315                     l4757:
  8182  0315  1C5F               	btfss	___flmul@prod+3,0
  8183  0316  2B18               	goto	u6351
  8184  0317  2B19               	goto	u6350
  8185  0318                     u6351:
  8186  0318  2B38               	goto	l4763
  8187  0319                     u6350:
  8188  0319                     l4759:
  8189  0319  085C               	movf	___flmul@prod,w
  8190  031A  00D0               	movwf	??___flmul
  8191  031B  085D               	movf	___flmul@prod+1,w
  8192  031C  00D1               	movwf	??___flmul+1
  8193  031D  085E               	movf	___flmul@prod+2,w
  8194  031E  00D2               	movwf	??___flmul+2
  8195  031F  085F               	movf	___flmul@prod+3,w
  8196  0320  00D3               	movwf	??___flmul+3
  8197  0321  3001               	movlw	1
  8198  0322  00D4               	movwf	??___flmul+4
  8199  0323                     u6365:
  8200  0323  0D53               	rlf	??___flmul+3,w
  8201  0324  0CD3               	rrf	??___flmul+3,f
  8202  0325  0CD2               	rrf	??___flmul+2,f
  8203  0326  0CD1               	rrf	??___flmul+1,f
  8204  0327  0CD0               	rrf	??___flmul,f
  8205  0328                     u6360:
  8206  0328  0BD4               	decfsz	??___flmul+4,f
  8207  0329  2B23               	goto	u6365
  8208  032A  0853               	movf	??___flmul+3,w
  8209  032B  00DF               	movwf	___flmul@prod+3
  8210  032C  0852               	movf	??___flmul+2,w
  8211  032D  00DE               	movwf	___flmul@prod+2
  8212  032E  0851               	movf	??___flmul+1,w
  8213  032F  00DD               	movwf	___flmul@prod+1
  8214  0330  0850               	movf	??___flmul,w
  8215  0331  00DC               	movwf	___flmul@prod
  8216  0332                     l4761:
  8217  0332  3001               	movlw	1
  8218  0333  07E0               	addwf	___flmul@temp,f
  8219  0334  1803               	skipnc
  8220  0335  0AE1               	incf	___flmul@temp+1,f
  8221  0336  3000               	movlw	0
  8222  0337  07E1               	addwf	___flmul@temp+1,f
  8223  0338                     l4763:
  8224  0338  0861               	movf	___flmul@temp+1,w
  8225  0339  3A80               	xorlw	128
  8226  033A  00FF               	movwf	btemp+1
  8227  033B  3080               	movlw	128
  8228  033C  027F               	subwf	btemp+1,w
  8229  033D  1D03               	skipz
  8230  033E  2B41               	goto	u6375
  8231  033F  30FF               	movlw	255
  8232  0340  0260               	subwf	___flmul@temp,w
  8233  0341                     u6375:
  8234  0341  1C03               	skipc
  8235  0342  2B44               	goto	u6371
  8236  0343  2B45               	goto	u6370
  8237  0344                     u6371:
  8238  0344  2B50               	goto	l4767
  8239  0345                     u6370:
  8240  0345                     l4765:
  8241  0345  307F               	movlw	127
  8242  0346  1283               	bcf	3,5	;RP0=0, select bank0
  8243  0347  1303               	bcf	3,6	;RP1=0, select bank0
  8244  0348  00DF               	movwf	___flmul@prod+3
  8245  0349  3080               	movlw	128
  8246  034A  00DE               	movwf	___flmul@prod+2
  8247  034B  3000               	movlw	0
  8248  034C  00DD               	movwf	___flmul@prod+1
  8249  034D  3000               	movlw	0
  8250  034E  00DC               	movwf	___flmul@prod
  8251  034F  2B85               	goto	l964
  8252  0350                     l4767:
  8253  0350  1283               	bcf	3,5	;RP0=0, select bank0
  8254  0351  1303               	bcf	3,6	;RP1=0, select bank0
  8255  0352  0861               	movf	___flmul@temp+1,w
  8256  0353  3A80               	xorlw	128
  8257  0354  00FF               	movwf	btemp+1
  8258  0355  3080               	movlw	128
  8259  0356  027F               	subwf	btemp+1,w
  8260  0357  1D03               	skipz
  8261  0358  2B5B               	goto	u6385
  8262  0359  3001               	movlw	1
  8263  035A  0260               	subwf	___flmul@temp,w
  8264  035B                     u6385:
  8265  035B  1803               	skipnc
  8266  035C  2B5E               	goto	u6381
  8267  035D  2B5F               	goto	u6380
  8268  035E                     u6381:
  8269  035E  2B6B               	goto	l4773
  8270  035F                     u6380:
  8271  035F                     l4769:
  8272  035F  3000               	movlw	0
  8273  0360  1283               	bcf	3,5	;RP0=0, select bank0
  8274  0361  1303               	bcf	3,6	;RP1=0, select bank0
  8275  0362  00DF               	movwf	___flmul@prod+3
  8276  0363  3000               	movlw	0
  8277  0364  00DE               	movwf	___flmul@prod+2
  8278  0365  3000               	movlw	0
  8279  0366  00DD               	movwf	___flmul@prod+1
  8280  0367  3000               	movlw	0
  8281  0368  00DC               	movwf	___flmul@prod
  8282  0369                     l4771:
  8283  0369  01D5               	clrf	___flmul@sign
  8284  036A  2B85               	goto	l964
  8285  036B                     l4773:
  8286  036B  1283               	bcf	3,5	;RP0=0, select bank0
  8287  036C  1303               	bcf	3,6	;RP1=0, select bank0
  8288  036D  0860               	movf	___flmul@temp,w
  8289  036E  00D0               	movwf	??___flmul
  8290  036F  0850               	movf	??___flmul,w
  8291  0370  00DB               	movwf	___flmul@bexp
  8292  0371  30FF               	movlw	255
  8293  0372  05DC               	andwf	___flmul@prod,f
  8294  0373  30FF               	movlw	255
  8295  0374  05DD               	andwf	___flmul@prod+1,f
  8296  0375  307F               	movlw	127
  8297  0376  05DE               	andwf	___flmul@prod+2,f
  8298  0377  3000               	movlw	0
  8299  0378  05DF               	andwf	___flmul@prod+3,f
  8300  0379                     l4775:
  8301  0379  1C5B               	btfss	___flmul@bexp,0
  8302  037A  2B7C               	goto	u6391
  8303  037B  2B7D               	goto	u6390
  8304  037C                     u6391:
  8305  037C  2B7E               	goto	l4779
  8306  037D                     u6390:
  8307  037D                     l4777:
  8308  037D  17DE               	bsf	___flmul@prod+2,7
  8309  037E                     l4779:
  8310  037E  085B               	movf	___flmul@bexp,w
  8311  037F  00D0               	movwf	??___flmul
  8312  0380  1003               	clrc
  8313  0381  0C50               	rrf	??___flmul,w
  8314  0382  00D1               	movwf	??___flmul+1
  8315  0383  0851               	movf	??___flmul+1,w
  8316  0384  00DF               	movwf	___flmul@prod+3
  8317  0385                     l964:
  8318  0385  0855               	movf	___flmul@sign,w
  8319  0386  00D0               	movwf	??___flmul
  8320  0387  0850               	movf	??___flmul,w
  8321  0388  04DF               	iorwf	___flmul@prod+3,f
  8322  0389                     l4781:
  8323  0389  085F               	movf	___flmul@prod+3,w
  8324  038A  00CB               	movwf	?___flmul+3
  8325  038B  085E               	movf	___flmul@prod+2,w
  8326  038C  00CA               	movwf	?___flmul+2
  8327  038D  085D               	movf	___flmul@prod+1,w
  8328  038E  00C9               	movwf	?___flmul+1
  8329  038F  085C               	movf	___flmul@prod,w
  8330  0390  00C8               	movwf	?___flmul
  8331  0391                     l952:
  8332  0391  0008               	return
  8333  0392                     __end_of___flmul:
  8334                           
  8335                           	psect	text39
  8336  1F25                     __ptext39:	
  8337 ;; *************** function __Umul8_16 *****************
  8338 ;; Defined at:
  8339 ;;		line 4 in file "/opt/microchip/xc8/v2.36/pic/sources/c90/common/Umul8_16.c"
  8340 ;; Parameters:    Size  Location     Type
  8341 ;;  multiplier      1    wreg     unsigned char 
  8342 ;;  multiplicand    1    2[COMMON] unsigned char 
  8343 ;; Auto vars:     Size  Location     Type
  8344 ;;  multiplier      1    4[BANK0 ] unsigned char 
  8345 ;;  word_mpld       2    2[BANK0 ] unsigned int 
  8346 ;;  product         2    0[BANK0 ] unsigned int 
  8347 ;; Return value:  Size  Location     Type
  8348 ;;                  2    2[COMMON] unsigned int 
  8349 ;; Registers used:
  8350 ;;		wreg, status,2, status,0
  8351 ;; Tracked objects:
  8352 ;;		On entry : 0/0
  8353 ;;		On exit  : 0/0
  8354 ;;		Unchanged: 0/0
  8355 ;; Data sizes:     COMMON   BANK0   BANK1   BANK3   BANK2
  8356 ;;      Params:         2       0       0       0       0
  8357 ;;      Locals:         0       5       0       0       0
  8358 ;;      Temps:          2       0       0       0       0
  8359 ;;      Totals:         4       5       0       0       0
  8360 ;;Total ram usage:        9 bytes
  8361 ;; Hardware stack levels used: 1
  8362 ;; Hardware stack levels required when called: 1
  8363 ;; This function calls:
  8364 ;;		Nothing
  8365 ;; This function is called by:
  8366 ;;		___flmul
  8367 ;; This function uses a non-reentrant model
  8368 ;;
  8369                           
  8370  1F25                     __Umul8_16:	
  8371                           ;psect for function __Umul8_16
  8372                           
  8373                           
  8374                           ;incstack = 0
  8375                           ; Regs used in __Umul8_16: [wreg+status,2+status,0]
  8376                           ;__Umul8_16@multiplier stored from wreg
  8377  1F25  1283               	bcf	3,5	;RP0=0, select bank0
  8378  1F26  1303               	bcf	3,6	;RP1=0, select bank0
  8379  1F27  00A4               	movwf	__Umul8_16@multiplier
  8380  1F28                     l4313:
  8381  1F28  01A0               	clrf	__Umul8_16@product
  8382  1F29  01A1               	clrf	__Umul8_16@product+1
  8383  1F2A                     l4315:
  8384  1F2A  0872               	movf	__Umul8_16@multiplicand,w
  8385  1F2B  00F4               	movwf	??__Umul8_16
  8386  1F2C  01F5               	clrf	??__Umul8_16+1
  8387  1F2D  0874               	movf	??__Umul8_16,w
  8388  1F2E  00A2               	movwf	__Umul8_16@word_mpld
  8389  1F2F  0875               	movf	??__Umul8_16+1,w
  8390  1F30  00A3               	movwf	__Umul8_16@word_mpld+1
  8391  1F31                     l4317:
  8392  1F31  1C24               	btfss	__Umul8_16@multiplier,0
  8393  1F32  2F34               	goto	u5481
  8394  1F33  2F35               	goto	u5480
  8395  1F34                     u5481:
  8396  1F34  2F3B               	goto	l971
  8397  1F35                     u5480:
  8398  1F35                     l4319:
  8399  1F35  0822               	movf	__Umul8_16@word_mpld,w
  8400  1F36  07A0               	addwf	__Umul8_16@product,f
  8401  1F37  1803               	skipnc
  8402  1F38  0AA1               	incf	__Umul8_16@product+1,f
  8403  1F39  0823               	movf	__Umul8_16@word_mpld+1,w
  8404  1F3A  07A1               	addwf	__Umul8_16@product+1,f
  8405  1F3B                     l971:
  8406  1F3B  3001               	movlw	1
  8407  1F3C                     u5495:
  8408  1F3C  1003               	clrc
  8409  1F3D  0DA2               	rlf	__Umul8_16@word_mpld,f
  8410  1F3E  0DA3               	rlf	__Umul8_16@word_mpld+1,f
  8411  1F3F  3EFF               	addlw	-1
  8412  1F40  1D03               	skipz
  8413  1F41  2F3C               	goto	u5495
  8414  1F42  1003               	clrc
  8415  1F43  0CA4               	rrf	__Umul8_16@multiplier,f
  8416  1F44                     l4321:
  8417  1F44  0824               	movf	__Umul8_16@multiplier,w
  8418  1F45  1D03               	btfss	3,2
  8419  1F46  2F48               	goto	u5501
  8420  1F47  2F49               	goto	u5500
  8421  1F48                     u5501:
  8422  1F48  2F31               	goto	l4317
  8423  1F49                     u5500:
  8424  1F49                     l4323:
  8425  1F49  0821               	movf	__Umul8_16@product+1,w
  8426  1F4A  00F3               	movwf	?__Umul8_16+1
  8427  1F4B  0820               	movf	__Umul8_16@product,w
  8428  1F4C  00F2               	movwf	?__Umul8_16
  8429  1F4D                     l973:
  8430  1F4D  0008               	return
  8431  1F4E                     __end_of__Umul8_16:
  8432                           
  8433                           	psect	text40
  8434  05EB                     __ptext40:	
  8435 ;; *************** function ___fldiv *****************
  8436 ;; Defined at:
  8437 ;;		line 8 in file "/opt/microchip/xc8/v2.36/pic/sources/c90/common/sprcdiv.c"
  8438 ;; Parameters:    Size  Location     Type
  8439 ;;  a               4   14[BANK0 ] unsigned int 
  8440 ;;  b               4   18[BANK0 ] unsigned int 
  8441 ;; Auto vars:     Size  Location     Type
  8442 ;;  grs             4   34[BANK0 ] unsigned long 
  8443 ;;  rem             4   27[BANK0 ] unsigned long 
  8444 ;;  new_exp         2   32[BANK0 ] int 
  8445 ;;  aexp            1   39[BANK0 ] unsigned char 
  8446 ;;  bexp            1   38[BANK0 ] unsigned char 
  8447 ;;  sign            1   31[BANK0 ] unsigned char 
  8448 ;; Return value:  Size  Location     Type
  8449 ;;                  4   14[BANK0 ] unsigned char 
  8450 ;; Registers used:
  8451 ;;		wreg, status,2, status,0, btemp+1
  8452 ;; Tracked objects:
  8453 ;;		On entry : 0/0
  8454 ;;		On exit  : 0/0
  8455 ;;		Unchanged: 0/0
  8456 ;; Data sizes:     COMMON   BANK0   BANK1   BANK3   BANK2
  8457 ;;      Params:         0       8       0       0       0
  8458 ;;      Locals:         0      13       0       0       0
  8459 ;;      Temps:          0       5       0       0       0
  8460 ;;      Totals:         0      26       0       0       0
  8461 ;;Total ram usage:       26 bytes
  8462 ;; Hardware stack levels used: 1
  8463 ;; Hardware stack levels required when called: 1
  8464 ;; This function calls:
  8465 ;;		Nothing
  8466 ;; This function is called by:
  8467 ;;		_main
  8468 ;; This function uses a non-reentrant model
  8469 ;;
  8470                           
  8471  05EB                     ___fldiv:	
  8472                           ;psect for function ___fldiv
  8473                           
  8474  05EB                     l4503:	
  8475                           ;incstack = 0
  8476                           ; Regs used in ___fldiv: [wreg+status,2+status,0+btemp+1]
  8477                           
  8478  05EB  1283               	bcf	3,5	;RP0=0, select bank0
  8479  05EC  1303               	bcf	3,6	;RP1=0, select bank0
  8480  05ED  0835               	movf	___fldiv@b+3,w
  8481  05EE  3980               	andlw	128
  8482  05EF  00B6               	movwf	??___fldiv
  8483  05F0  0836               	movf	??___fldiv,w
  8484  05F1  00BF               	movwf	___fldiv@sign
  8485  05F2                     l4505:
  8486  05F2  0835               	movf	___fldiv@b+3,w
  8487  05F3  00B6               	movwf	??___fldiv
  8488  05F4  0736               	addwf	??___fldiv,w
  8489  05F5  00B7               	movwf	??___fldiv+1
  8490  05F6  0837               	movf	??___fldiv+1,w
  8491  05F7  00C6               	movwf	___fldiv@bexp
  8492  05F8                     l4507:
  8493  05F8  1FB4               	btfss	___fldiv@b+2,7
  8494  05F9  2DFB               	goto	u5741
  8495  05FA  2DFC               	goto	u5740
  8496  05FB                     u5741:
  8497  05FB  2DFD               	goto	l4511
  8498  05FC                     u5740:
  8499  05FC                     l4509:
  8500  05FC  1446               	bsf	___fldiv@bexp,0
  8501  05FD                     l4511:
  8502  05FD  0846               	movf	___fldiv@bexp,w
  8503  05FE  1903               	btfsc	3,2
  8504  05FF  2E01               	goto	u5751
  8505  0600  2E02               	goto	u5750
  8506  0601                     u5751:
  8507  0601  2E12               	goto	l4521
  8508  0602                     u5750:
  8509  0602                     l4513:
  8510  0602  0A46               	incf	___fldiv@bexp,w
  8511  0603  1D03               	btfss	3,2
  8512  0604  2E06               	goto	u5761
  8513  0605  2E07               	goto	u5760
  8514  0606                     u5761:
  8515  0606  2E0F               	goto	l4517
  8516  0607                     u5760:
  8517  0607                     l4515:
  8518  0607  3000               	movlw	0
  8519  0608  00B5               	movwf	___fldiv@b+3
  8520  0609  3000               	movlw	0
  8521  060A  00B4               	movwf	___fldiv@b+2
  8522  060B  3000               	movlw	0
  8523  060C  00B3               	movwf	___fldiv@b+1
  8524  060D  3000               	movlw	0
  8525  060E  00B2               	movwf	___fldiv@b
  8526  060F                     l4517:
  8527  060F  17B4               	bsf	___fldiv@b+2,7
  8528  0610                     l4519:
  8529  0610  01B5               	clrf	___fldiv@b+3
  8530  0611  2E1A               	goto	l4523
  8531  0612                     l4521:
  8532  0612  3000               	movlw	0
  8533  0613  00B5               	movwf	___fldiv@b+3
  8534  0614  3000               	movlw	0
  8535  0615  00B4               	movwf	___fldiv@b+2
  8536  0616  3000               	movlw	0
  8537  0617  00B3               	movwf	___fldiv@b+1
  8538  0618  3000               	movlw	0
  8539  0619  00B2               	movwf	___fldiv@b
  8540  061A                     l4523:
  8541  061A  0831               	movf	___fldiv@a+3,w
  8542  061B  3980               	andlw	128
  8543  061C  00B6               	movwf	??___fldiv
  8544  061D  0836               	movf	??___fldiv,w
  8545  061E  06BF               	xorwf	___fldiv@sign,f
  8546  061F                     l4525:
  8547  061F  0831               	movf	___fldiv@a+3,w
  8548  0620  00B6               	movwf	??___fldiv
  8549  0621  0736               	addwf	??___fldiv,w
  8550  0622  00B7               	movwf	??___fldiv+1
  8551  0623  0837               	movf	??___fldiv+1,w
  8552  0624  00C7               	movwf	___fldiv@aexp
  8553  0625                     l4527:
  8554  0625  1FB0               	btfss	___fldiv@a+2,7
  8555  0626  2E28               	goto	u5771
  8556  0627  2E29               	goto	u5770
  8557  0628                     u5771:
  8558  0628  2E2A               	goto	l4531
  8559  0629                     u5770:
  8560  0629                     l4529:
  8561  0629  1447               	bsf	___fldiv@aexp,0
  8562  062A                     l4531:
  8563  062A  0847               	movf	___fldiv@aexp,w
  8564  062B  1903               	btfsc	3,2
  8565  062C  2E2E               	goto	u5781
  8566  062D  2E2F               	goto	u5780
  8567  062E                     u5781:
  8568  062E  2E3F               	goto	l4541
  8569  062F                     u5780:
  8570  062F                     l4533:
  8571  062F  0A47               	incf	___fldiv@aexp,w
  8572  0630  1D03               	btfss	3,2
  8573  0631  2E33               	goto	u5791
  8574  0632  2E34               	goto	u5790
  8575  0633                     u5791:
  8576  0633  2E3C               	goto	l4537
  8577  0634                     u5790:
  8578  0634                     l4535:
  8579  0634  3000               	movlw	0
  8580  0635  00B1               	movwf	___fldiv@a+3
  8581  0636  3000               	movlw	0
  8582  0637  00B0               	movwf	___fldiv@a+2
  8583  0638  3000               	movlw	0
  8584  0639  00AF               	movwf	___fldiv@a+1
  8585  063A  3000               	movlw	0
  8586  063B  00AE               	movwf	___fldiv@a
  8587  063C                     l4537:
  8588  063C  17B0               	bsf	___fldiv@a+2,7
  8589  063D                     l4539:
  8590  063D  01B1               	clrf	___fldiv@a+3
  8591  063E  2E47               	goto	l912
  8592  063F                     l4541:
  8593  063F  3000               	movlw	0
  8594  0640  00B1               	movwf	___fldiv@a+3
  8595  0641  3000               	movlw	0
  8596  0642  00B0               	movwf	___fldiv@a+2
  8597  0643  3000               	movlw	0
  8598  0644  00AF               	movwf	___fldiv@a+1
  8599  0645  3000               	movlw	0
  8600  0646  00AE               	movwf	___fldiv@a
  8601  0647                     l912:
  8602  0647  0831               	movf	___fldiv@a+3,w
  8603  0648  0430               	iorwf	___fldiv@a+2,w
  8604  0649  042F               	iorwf	___fldiv@a+1,w
  8605  064A  042E               	iorwf	___fldiv@a,w
  8606  064B  1D03               	skipz
  8607  064C  2E4E               	goto	u5801
  8608  064D  2E4F               	goto	u5800
  8609  064E                     u5801:
  8610  064E  2E68               	goto	l4551
  8611  064F                     u5800:
  8612  064F                     l4543:
  8613  064F  3000               	movlw	0
  8614  0650  00B5               	movwf	___fldiv@b+3
  8615  0651  3000               	movlw	0
  8616  0652  00B4               	movwf	___fldiv@b+2
  8617  0653  3000               	movlw	0
  8618  0654  00B3               	movwf	___fldiv@b+1
  8619  0655  3000               	movlw	0
  8620  0656  00B2               	movwf	___fldiv@b
  8621  0657  3080               	movlw	128
  8622  0658  04B4               	iorwf	___fldiv@b+2,f
  8623  0659  307F               	movlw	127
  8624  065A  04B5               	iorwf	___fldiv@b+3,f
  8625  065B                     l4545:
  8626  065B  083F               	movf	___fldiv@sign,w
  8627  065C  00B6               	movwf	??___fldiv
  8628  065D  0836               	movf	??___fldiv,w
  8629  065E  04B5               	iorwf	___fldiv@b+3,f
  8630  065F                     l4547:
  8631  065F  0835               	movf	___fldiv@b+3,w
  8632  0660  00B1               	movwf	?___fldiv+3
  8633  0661  0834               	movf	___fldiv@b+2,w
  8634  0662  00B0               	movwf	?___fldiv+2
  8635  0663  0833               	movf	___fldiv@b+1,w
  8636  0664  00AF               	movwf	?___fldiv+1
  8637  0665  0832               	movf	___fldiv@b,w
  8638  0666  00AE               	movwf	?___fldiv
  8639  0667  2FC7               	goto	l914
  8640  0668                     l4551:
  8641  0668  0846               	movf	___fldiv@bexp,w
  8642  0669  1D03               	btfss	3,2
  8643  066A  2E6C               	goto	u5811
  8644  066B  2E6D               	goto	u5810
  8645  066C                     u5811:
  8646  066C  2E76               	goto	l4557
  8647  066D                     u5810:
  8648  066D                     l4553:
  8649  066D  3000               	movlw	0
  8650  066E  00B1               	movwf	?___fldiv+3
  8651  066F  3000               	movlw	0
  8652  0670  00B0               	movwf	?___fldiv+2
  8653  0671  3000               	movlw	0
  8654  0672  00AF               	movwf	?___fldiv+1
  8655  0673  3000               	movlw	0
  8656  0674  00AE               	movwf	?___fldiv
  8657  0675  2FC7               	goto	l914
  8658  0676                     l4557:
  8659  0676  0846               	movf	___fldiv@bexp,w
  8660  0677  00B6               	movwf	??___fldiv
  8661  0678  01B7               	clrf	??___fldiv+1
  8662  0679  0837               	movf	??___fldiv+1,w
  8663  067A  00B9               	movwf	??___fldiv+3
  8664  067B  0847               	movf	___fldiv@aexp,w
  8665  067C  0236               	subwf	??___fldiv,w
  8666  067D  00B8               	movwf	??___fldiv+2
  8667  067E  1C03               	skipc
  8668  067F  03B9               	decf	??___fldiv+3,f
  8669  0680  0838               	movf	??___fldiv+2,w
  8670  0681  3E7F               	addlw	127
  8671  0682  00C0               	movwf	___fldiv@new_exp
  8672  0683  0839               	movf	??___fldiv+3,w
  8673  0684  1803               	skipnc
  8674  0685  3E01               	addlw	1
  8675  0686  3E00               	addlw	0
  8676  0687  00C1               	movwf	___fldiv@new_exp+1
  8677  0688                     l4559:
  8678  0688  0835               	movf	___fldiv@b+3,w
  8679  0689  00BE               	movwf	___fldiv@rem+3
  8680  068A  0834               	movf	___fldiv@b+2,w
  8681  068B  00BD               	movwf	___fldiv@rem+2
  8682  068C  0833               	movf	___fldiv@b+1,w
  8683  068D  00BC               	movwf	___fldiv@rem+1
  8684  068E  0832               	movf	___fldiv@b,w
  8685  068F  00BB               	movwf	___fldiv@rem
  8686  0690                     l4561:
  8687  0690  3000               	movlw	0
  8688  0691  00B5               	movwf	___fldiv@b+3
  8689  0692  3000               	movlw	0
  8690  0693  00B4               	movwf	___fldiv@b+2
  8691  0694  3000               	movlw	0
  8692  0695  00B3               	movwf	___fldiv@b+1
  8693  0696  3000               	movlw	0
  8694  0697  00B2               	movwf	___fldiv@b
  8695  0698                     l4563:
  8696  0698  3000               	movlw	0
  8697  0699  00C5               	movwf	___fldiv@grs+3
  8698  069A  3000               	movlw	0
  8699  069B  00C4               	movwf	___fldiv@grs+2
  8700  069C  3000               	movlw	0
  8701  069D  00C3               	movwf	___fldiv@grs+1
  8702  069E  3000               	movlw	0
  8703  069F  00C2               	movwf	___fldiv@grs
  8704  06A0                     l4565:
  8705  06A0  01C7               	clrf	___fldiv@aexp
  8706  06A1  2EEC               	goto	l4585
  8707  06A2                     l4567:
  8708  06A2  0847               	movf	___fldiv@aexp,w
  8709  06A3  1903               	btfsc	3,2
  8710  06A4  2EA6               	goto	u5821
  8711  06A5  2EA7               	goto	u5820
  8712  06A6                     u5821:
  8713  06A6  2EC7               	goto	l4577
  8714  06A7                     u5820:
  8715  06A7                     l4569:
  8716  06A7  3001               	movlw	1
  8717  06A8  00B6               	movwf	??___fldiv
  8718  06A9                     u5835:
  8719  06A9  1003               	clrc
  8720  06AA  0DBB               	rlf	___fldiv@rem,f
  8721  06AB  0DBC               	rlf	___fldiv@rem+1,f
  8722  06AC  0DBD               	rlf	___fldiv@rem+2,f
  8723  06AD  0DBE               	rlf	___fldiv@rem+3,f
  8724  06AE  0BB6               	decfsz	??___fldiv,f
  8725  06AF  2EA9               	goto	u5835
  8726  06B0  3001               	movlw	1
  8727  06B1  00B6               	movwf	??___fldiv
  8728  06B2                     u5845:
  8729  06B2  1003               	clrc
  8730  06B3  0DB2               	rlf	___fldiv@b,f
  8731  06B4  0DB3               	rlf	___fldiv@b+1,f
  8732  06B5  0DB4               	rlf	___fldiv@b+2,f
  8733  06B6  0DB5               	rlf	___fldiv@b+3,f
  8734  06B7  0BB6               	decfsz	??___fldiv,f
  8735  06B8  2EB2               	goto	u5845
  8736  06B9                     l4571:
  8737  06B9  1FC5               	btfss	___fldiv@grs+3,7
  8738  06BA  2EBC               	goto	u5851
  8739  06BB  2EBD               	goto	u5850
  8740  06BC                     u5851:
  8741  06BC  2EBE               	goto	l4575
  8742  06BD                     u5850:
  8743  06BD                     l4573:
  8744  06BD  1432               	bsf	___fldiv@b,0
  8745  06BE                     l4575:
  8746  06BE  3001               	movlw	1
  8747  06BF  00B6               	movwf	??___fldiv
  8748  06C0                     u5865:
  8749  06C0  1003               	clrc
  8750  06C1  0DC2               	rlf	___fldiv@grs,f
  8751  06C2  0DC3               	rlf	___fldiv@grs+1,f
  8752  06C3  0DC4               	rlf	___fldiv@grs+2,f
  8753  06C4  0DC5               	rlf	___fldiv@grs+3,f
  8754  06C5  0BB6               	decfsz	??___fldiv,f
  8755  06C6  2EC0               	goto	u5865
  8756  06C7                     l4577:
  8757  06C7  0831               	movf	___fldiv@a+3,w
  8758  06C8  023E               	subwf	___fldiv@rem+3,w
  8759  06C9  1D03               	skipz
  8760  06CA  2ED5               	goto	u5875
  8761  06CB  0830               	movf	___fldiv@a+2,w
  8762  06CC  023D               	subwf	___fldiv@rem+2,w
  8763  06CD  1D03               	skipz
  8764  06CE  2ED5               	goto	u5875
  8765  06CF  082F               	movf	___fldiv@a+1,w
  8766  06D0  023C               	subwf	___fldiv@rem+1,w
  8767  06D1  1D03               	skipz
  8768  06D2  2ED5               	goto	u5875
  8769  06D3  082E               	movf	___fldiv@a,w
  8770  06D4  023B               	subwf	___fldiv@rem,w
  8771  06D5                     u5875:
  8772  06D5  1C03               	skipc
  8773  06D6  2ED8               	goto	u5871
  8774  06D7  2ED9               	goto	u5870
  8775  06D8                     u5871:
  8776  06D8  2EE8               	goto	l4583
  8777  06D9                     u5870:
  8778  06D9                     l4579:
  8779  06D9  1745               	bsf	___fldiv@grs+3,6
  8780  06DA                     l4581:
  8781  06DA  082E               	movf	___fldiv@a,w
  8782  06DB  02BB               	subwf	___fldiv@rem,f
  8783  06DC  082F               	movf	___fldiv@a+1,w
  8784  06DD  1C03               	skipc
  8785  06DE  0F2F               	incfsz	___fldiv@a+1,w
  8786  06DF  02BC               	subwf	___fldiv@rem+1,f
  8787  06E0  0830               	movf	___fldiv@a+2,w
  8788  06E1  1C03               	skipc
  8789  06E2  0F30               	incfsz	___fldiv@a+2,w
  8790  06E3  02BD               	subwf	___fldiv@rem+2,f
  8791  06E4  0831               	movf	___fldiv@a+3,w
  8792  06E5  1C03               	skipc
  8793  06E6  0F31               	incfsz	___fldiv@a+3,w
  8794  06E7  02BE               	subwf	___fldiv@rem+3,f
  8795  06E8                     l4583:
  8796  06E8  3001               	movlw	1
  8797  06E9  00B6               	movwf	??___fldiv
  8798  06EA  0836               	movf	??___fldiv,w
  8799  06EB  07C7               	addwf	___fldiv@aexp,f
  8800  06EC                     l4585:
  8801  06EC  301A               	movlw	26
  8802  06ED  0247               	subwf	___fldiv@aexp,w
  8803  06EE  1C03               	skipc
  8804  06EF  2EF1               	goto	u5881
  8805  06F0  2EF2               	goto	u5880
  8806  06F1                     u5881:
  8807  06F1  2EA2               	goto	l4567
  8808  06F2                     u5880:
  8809  06F2                     l4587:
  8810  06F2  083E               	movf	___fldiv@rem+3,w
  8811  06F3  043D               	iorwf	___fldiv@rem+2,w
  8812  06F4  043C               	iorwf	___fldiv@rem+1,w
  8813  06F5  043B               	iorwf	___fldiv@rem,w
  8814  06F6  1903               	skipnz
  8815  06F7  2EF9               	goto	u5891
  8816  06F8  2EFA               	goto	u5890
  8817  06F9                     u5891:
  8818  06F9  2F19               	goto	l4601
  8819  06FA                     u5890:
  8820  06FA                     l4589:
  8821  06FA  1442               	bsf	___fldiv@grs,0
  8822  06FB  2F19               	goto	l4601
  8823  06FC                     l4591:
  8824  06FC  3001               	movlw	1
  8825  06FD  00B6               	movwf	??___fldiv
  8826  06FE                     u5905:
  8827  06FE  1003               	clrc
  8828  06FF  0DB2               	rlf	___fldiv@b,f
  8829  0700  0DB3               	rlf	___fldiv@b+1,f
  8830  0701  0DB4               	rlf	___fldiv@b+2,f
  8831  0702  0DB5               	rlf	___fldiv@b+3,f
  8832  0703  0BB6               	decfsz	??___fldiv,f
  8833  0704  2EFE               	goto	u5905
  8834  0705                     l4593:
  8835  0705  1FC5               	btfss	___fldiv@grs+3,7
  8836  0706  2F08               	goto	u5911
  8837  0707  2F09               	goto	u5910
  8838  0708                     u5911:
  8839  0708  2F0A               	goto	l4597
  8840  0709                     u5910:
  8841  0709                     l4595:
  8842  0709  1432               	bsf	___fldiv@b,0
  8843  070A                     l4597:
  8844  070A  3001               	movlw	1
  8845  070B  00B6               	movwf	??___fldiv
  8846  070C                     u5925:
  8847  070C  1003               	clrc
  8848  070D  0DC2               	rlf	___fldiv@grs,f
  8849  070E  0DC3               	rlf	___fldiv@grs+1,f
  8850  070F  0DC4               	rlf	___fldiv@grs+2,f
  8851  0710  0DC5               	rlf	___fldiv@grs+3,f
  8852  0711  0BB6               	decfsz	??___fldiv,f
  8853  0712  2F0C               	goto	u5925
  8854  0713                     l4599:
  8855  0713  30FF               	movlw	255
  8856  0714  07C0               	addwf	___fldiv@new_exp,f
  8857  0715  1803               	skipnc
  8858  0716  0AC1               	incf	___fldiv@new_exp+1,f
  8859  0717  30FF               	movlw	255
  8860  0718  07C1               	addwf	___fldiv@new_exp+1,f
  8861  0719                     l4601:
  8862  0719  1FB4               	btfss	___fldiv@b+2,7
  8863  071A  2F1C               	goto	u5931
  8864  071B  2F1D               	goto	u5930
  8865  071C                     u5931:
  8866  071C  2EFC               	goto	l4591
  8867  071D                     u5930:
  8868  071D                     l4603:
  8869  071D  01C7               	clrf	___fldiv@aexp
  8870  071E                     l4605:
  8871  071E  1FC5               	btfss	___fldiv@grs+3,7
  8872  071F  2F21               	goto	u5941
  8873  0720  2F22               	goto	u5940
  8874  0721                     u5941:
  8875  0721  2F3E               	goto	l4613
  8876  0722                     u5940:
  8877  0722                     l4607:
  8878  0722  30FF               	movlw	255
  8879  0723  0542               	andwf	___fldiv@grs,w
  8880  0724  00B6               	movwf	??___fldiv
  8881  0725  30FF               	movlw	255
  8882  0726  0543               	andwf	___fldiv@grs+1,w
  8883  0727  00B7               	movwf	??___fldiv+1
  8884  0728  30FF               	movlw	255
  8885  0729  0544               	andwf	___fldiv@grs+2,w
  8886  072A  00B8               	movwf	??___fldiv+2
  8887  072B  307F               	movlw	127
  8888  072C  0545               	andwf	___fldiv@grs+3,w
  8889  072D  00B9               	movwf	??___fldiv+3
  8890  072E  0839               	movf	??___fldiv+3,w
  8891  072F  0438               	iorwf	??___fldiv+2,w
  8892  0730  0437               	iorwf	??___fldiv+1,w
  8893  0731  0436               	iorwf	??___fldiv,w
  8894  0732  1903               	skipnz
  8895  0733  2F35               	goto	u5951
  8896  0734  2F36               	goto	u5950
  8897  0735                     u5951:
  8898  0735  2F39               	goto	l928
  8899  0736                     u5950:
  8900  0736                     l4609:
  8901  0736  01C7               	clrf	___fldiv@aexp
  8902  0737  0AC7               	incf	___fldiv@aexp,f
  8903  0738  2F3E               	goto	l4613
  8904  0739                     l928:
  8905  0739  1C32               	btfss	___fldiv@b,0
  8906  073A  2F3C               	goto	u5961
  8907  073B  2F3D               	goto	u5960
  8908  073C                     u5961:
  8909  073C  2F3E               	goto	l4613
  8910  073D                     u5960:
  8911  073D  2F36               	goto	l4609
  8912  073E                     l4613:
  8913  073E  0847               	movf	___fldiv@aexp,w
  8914  073F  1903               	btfsc	3,2
  8915  0740  2F42               	goto	u5971
  8916  0741  2F43               	goto	u5970
  8917  0742                     u5971:
  8918  0742  2F74               	goto	l4623
  8919  0743                     u5970:
  8920  0743                     l4615:
  8921  0743  3001               	movlw	1
  8922  0744  07B2               	addwf	___fldiv@b,f
  8923  0745  3000               	movlw	0
  8924  0746  1803               	skipnc
  8925  0747  3001               	movlw	1
  8926  0748  07B3               	addwf	___fldiv@b+1,f
  8927  0749  3000               	movlw	0
  8928  074A  1803               	skipnc
  8929  074B  3001               	movlw	1
  8930  074C  07B4               	addwf	___fldiv@b+2,f
  8931  074D  3000               	movlw	0
  8932  074E  1803               	skipnc
  8933  074F  3001               	movlw	1
  8934  0750  07B5               	addwf	___fldiv@b+3,f
  8935  0751                     l4617:
  8936  0751  1C35               	btfss	___fldiv@b+3,0
  8937  0752  2F54               	goto	u5981
  8938  0753  2F55               	goto	u5980
  8939  0754                     u5981:
  8940  0754  2F74               	goto	l4623
  8941  0755                     u5980:
  8942  0755                     l4619:
  8943  0755  0832               	movf	___fldiv@b,w
  8944  0756  00B6               	movwf	??___fldiv
  8945  0757  0833               	movf	___fldiv@b+1,w
  8946  0758  00B7               	movwf	??___fldiv+1
  8947  0759  0834               	movf	___fldiv@b+2,w
  8948  075A  00B8               	movwf	??___fldiv+2
  8949  075B  0835               	movf	___fldiv@b+3,w
  8950  075C  00B9               	movwf	??___fldiv+3
  8951  075D  3001               	movlw	1
  8952  075E  00BA               	movwf	??___fldiv+4
  8953  075F                     u5995:
  8954  075F  0D39               	rlf	??___fldiv+3,w
  8955  0760  0CB9               	rrf	??___fldiv+3,f
  8956  0761  0CB8               	rrf	??___fldiv+2,f
  8957  0762  0CB7               	rrf	??___fldiv+1,f
  8958  0763  0CB6               	rrf	??___fldiv,f
  8959  0764                     u5990:
  8960  0764  0BBA               	decfsz	??___fldiv+4,f
  8961  0765  2F5F               	goto	u5995
  8962  0766  0839               	movf	??___fldiv+3,w
  8963  0767  00B5               	movwf	___fldiv@b+3
  8964  0768  0838               	movf	??___fldiv+2,w
  8965  0769  00B4               	movwf	___fldiv@b+2
  8966  076A  0837               	movf	??___fldiv+1,w
  8967  076B  00B3               	movwf	___fldiv@b+1
  8968  076C  0836               	movf	??___fldiv,w
  8969  076D  00B2               	movwf	___fldiv@b
  8970  076E                     l4621:
  8971  076E  3001               	movlw	1
  8972  076F  07C0               	addwf	___fldiv@new_exp,f
  8973  0770  1803               	skipnc
  8974  0771  0AC1               	incf	___fldiv@new_exp+1,f
  8975  0772  3000               	movlw	0
  8976  0773  07C1               	addwf	___fldiv@new_exp+1,f
  8977  0774                     l4623:
  8978  0774  0841               	movf	___fldiv@new_exp+1,w
  8979  0775  3A80               	xorlw	128
  8980  0776  00FF               	movwf	btemp+1
  8981  0777  3080               	movlw	128
  8982  0778  027F               	subwf	btemp+1,w
  8983  0779  1D03               	skipz
  8984  077A  2F7D               	goto	u6005
  8985  077B  30FF               	movlw	255
  8986  077C  0240               	subwf	___fldiv@new_exp,w
  8987  077D                     u6005:
  8988  077D  1C03               	skipc
  8989  077E  2F80               	goto	u6001
  8990  077F  2F81               	goto	u6000
  8991  0780                     u6001:
  8992  0780  2F8F               	goto	l4627
  8993  0781                     u6000:
  8994  0781                     l4625:
  8995  0781  30FF               	movlw	255
  8996  0782  1283               	bcf	3,5	;RP0=0, select bank0
  8997  0783  1303               	bcf	3,6	;RP1=0, select bank0
  8998  0784  00C0               	movwf	___fldiv@new_exp
  8999  0785  3000               	movlw	0
  9000  0786  00C1               	movwf	___fldiv@new_exp+1
  9001  0787  3000               	movlw	0
  9002  0788  00B5               	movwf	___fldiv@b+3
  9003  0789  3000               	movlw	0
  9004  078A  00B4               	movwf	___fldiv@b+2
  9005  078B  3000               	movlw	0
  9006  078C  00B3               	movwf	___fldiv@b+1
  9007  078D  3000               	movlw	0
  9008  078E  00B2               	movwf	___fldiv@b
  9009  078F                     l4627:
  9010  078F  1283               	bcf	3,5	;RP0=0, select bank0
  9011  0790  1303               	bcf	3,6	;RP1=0, select bank0
  9012  0791  0841               	movf	___fldiv@new_exp+1,w
  9013  0792  3A80               	xorlw	128
  9014  0793  00FF               	movwf	btemp+1
  9015  0794  3080               	movlw	128
  9016  0795  027F               	subwf	btemp+1,w
  9017  0796  1D03               	skipz
  9018  0797  2F9A               	goto	u6015
  9019  0798  3001               	movlw	1
  9020  0799  0240               	subwf	___fldiv@new_exp,w
  9021  079A                     u6015:
  9022  079A  1803               	skipnc
  9023  079B  2F9D               	goto	u6011
  9024  079C  2F9E               	goto	u6010
  9025  079D                     u6011:
  9026  079D  2FAB               	goto	l934
  9027  079E                     u6010:
  9028  079E                     l4629:
  9029  079E  1283               	bcf	3,5	;RP0=0, select bank0
  9030  079F  1303               	bcf	3,6	;RP1=0, select bank0
  9031  07A0  01C0               	clrf	___fldiv@new_exp
  9032  07A1  01C1               	clrf	___fldiv@new_exp+1
  9033  07A2                     l4631:
  9034  07A2  3000               	movlw	0
  9035  07A3  00B5               	movwf	___fldiv@b+3
  9036  07A4  3000               	movlw	0
  9037  07A5  00B4               	movwf	___fldiv@b+2
  9038  07A6  3000               	movlw	0
  9039  07A7  00B3               	movwf	___fldiv@b+1
  9040  07A8  3000               	movlw	0
  9041  07A9  00B2               	movwf	___fldiv@b
  9042  07AA                     l4633:
  9043  07AA  01BF               	clrf	___fldiv@sign
  9044  07AB                     l934:
  9045  07AB  1283               	bcf	3,5	;RP0=0, select bank0
  9046  07AC  1303               	bcf	3,6	;RP1=0, select bank0
  9047  07AD  0840               	movf	___fldiv@new_exp,w
  9048  07AE  00B6               	movwf	??___fldiv
  9049  07AF  0836               	movf	??___fldiv,w
  9050  07B0  00C6               	movwf	___fldiv@bexp
  9051  07B1                     l4635:
  9052  07B1  1C46               	btfss	___fldiv@bexp,0
  9053  07B2  2FB4               	goto	u6021
  9054  07B3  2FB5               	goto	u6020
  9055  07B4                     u6021:
  9056  07B4  2FB7               	goto	l4639
  9057  07B5                     u6020:
  9058  07B5                     l4637:
  9059  07B5  17B4               	bsf	___fldiv@b+2,7
  9060  07B6  2FBB               	goto	l936
  9061  07B7                     l4639:
  9062  07B7  307F               	movlw	127
  9063  07B8  00B6               	movwf	??___fldiv
  9064  07B9  0836               	movf	??___fldiv,w
  9065  07BA  05B4               	andwf	___fldiv@b+2,f
  9066  07BB                     l936:
  9067  07BB  0846               	movf	___fldiv@bexp,w
  9068  07BC  00B6               	movwf	??___fldiv
  9069  07BD  1003               	clrc
  9070  07BE  0C36               	rrf	??___fldiv,w
  9071  07BF  00B7               	movwf	??___fldiv+1
  9072  07C0  0837               	movf	??___fldiv+1,w
  9073  07C1  00B5               	movwf	___fldiv@b+3
  9074  07C2  083F               	movf	___fldiv@sign,w
  9075  07C3  00B6               	movwf	??___fldiv
  9076  07C4  0836               	movf	??___fldiv,w
  9077  07C5  04B5               	iorwf	___fldiv@b+3,f
  9078  07C6  2E5F               	goto	l4547
  9079  07C7                     l914:
  9080  07C7  0008               	return
  9081  07C8                     __end_of___fldiv:
  9082                           
  9083                           	psect	text41
  9084  1E70                     __ptext41:	
  9085 ;; *************** function _isr *****************
  9086 ;; Defined at:
  9087 ;;		line 9 in file "isr.c"
  9088 ;; Parameters:    Size  Location     Type
  9089 ;;		None
  9090 ;; Auto vars:     Size  Location     Type
  9091 ;;		None
  9092 ;; Return value:  Size  Location     Type
  9093 ;;                  1    wreg      void 
  9094 ;; Registers used:
  9095 ;;		wreg, status,2, status,0
  9096 ;; Tracked objects:
  9097 ;;		On entry : 0/0
  9098 ;;		On exit  : 0/0
  9099 ;;		Unchanged: 0/0
  9100 ;; Data sizes:     COMMON   BANK0   BANK1   BANK3   BANK2
  9101 ;;      Params:         0       0       0       0       0
  9102 ;;      Locals:         0       0       0       0       0
  9103 ;;      Temps:          2       0       0       0       0
  9104 ;;      Totals:         2       0       0       0       0
  9105 ;;Total ram usage:        2 bytes
  9106 ;; Hardware stack levels used: 1
  9107 ;; This function calls:
  9108 ;;		Nothing
  9109 ;; This function is called by:
  9110 ;;		Interrupt level 1
  9111 ;; This function uses a non-reentrant model
  9112 ;;
  9113                           
  9114  1E70                     _isr:	
  9115                           ;psect for function _isr
  9116                           
  9117  1E70                     i1l1969:
  9118                           
  9119                           ;isr.c: 11:     if (TMR0IF == 1)
  9120  1E70  1D0B               	btfss	11,2	;volatile
  9121  1E71  2E73               	goto	u164_21
  9122  1E72  2E74               	goto	u164_20
  9123  1E73                     u164_21:
  9124  1E73  2E8B               	goto	i1l165
  9125  1E74                     u164_20:
  9126  1E74                     i1l1971:
  9127                           
  9128                           ;isr.c: 12:     {;isr.c: 14:         TMR0 = TMR0 + 6 + 2;
  9129  1E74  1283               	bcf	3,5	;RP0=0, select bank0
  9130  1E75  1303               	bcf	3,6	;RP1=0, select bank0
  9131  1E76  0801               	movf	1,w	;volatile
  9132  1E77  3E08               	addlw	8
  9133  1E78  0081               	movwf	1	;volatile
  9134                           
  9135                           ;isr.c: 16:         if (++time_count_isr == 20000)
  9136  1E79  3001               	movlw	1
  9137  1E7A  07FA               	addwf	_time_count_isr,f
  9138  1E7B  1803               	skipnc
  9139  1E7C  0AFB               	incf	_time_count_isr+1,f
  9140  1E7D  3000               	movlw	0
  9141  1E7E  07FB               	addwf	_time_count_isr+1,f
  9142  1E7F  3020               	movlw	32
  9143  1E80  067A               	xorwf	_time_count_isr,w
  9144  1E81  304E               	movlw	78
  9145  1E82  1903               	skipnz
  9146  1E83  067B               	xorwf	_time_count_isr+1,w
  9147  1E84  1D03               	btfss	3,2
  9148  1E85  2E87               	goto	u165_21
  9149  1E86  2E88               	goto	u165_20
  9150  1E87                     u165_21:
  9151  1E87  2E8A               	goto	i1l1975
  9152  1E88                     u165_20:
  9153  1E88                     i1l1973:
  9154                           
  9155                           ;isr.c: 17:         {;isr.c: 18:             time_count_isr = 0;
  9156  1E88  01FA               	clrf	_time_count_isr
  9157  1E89  01FB               	clrf	_time_count_isr+1
  9158  1E8A                     i1l1975:
  9159                           
  9160                           ;isr.c: 22:         TMR0IF = 0;
  9161  1E8A  110B               	bcf	11,2	;volatile
  9162  1E8B                     i1l165:
  9163  1E8B  0871               	movf	??_isr+1,w
  9164  1E8C  008A               	movwf	10
  9165  1E8D  0E70               	swapf	??_isr,w
  9166  1E8E  0083               	movwf	3
  9167  1E8F  0EFE               	swapf	btemp,f
  9168  1E90  0E7E               	swapf	btemp,w
  9169  1E91  0009               	retfie
  9170  1E92                     __end_of_isr:
  9171  007E                     btemp	set	126	;btemp
  9172  007E                     wtemp0	set	126
  9173                           
  9174                           	psect	intentry
  9175  0004                     __pintentry:	
  9176                           ;incstack = 0
  9177                           ; Regs used in _isr: [wreg+status,2+status,0]
  9178                           
  9179  0004                     interrupt_function:
  9180  007E                     saved_w	set	btemp
  9181  0004  00FE               	movwf	btemp
  9182  0005  0E03               	swapf	3,w
  9183  0006  00F0               	movwf	??_isr
  9184  0007  080A               	movf	10,w
  9185  0008  00F1               	movwf	??_isr+1
  9186  0009  160A  158A  2E70   	ljmp	_isr
  9187                           
  9188                           	psect	config
  9189                           
  9190                           ;Config register CONFIG @ 0x2007
  9191                           ;	Oscillator Selection bits
  9192                           ;	FOSC = 0x3, unprogrammed default
  9193                           ;	Watchdog Timer Enable bit
  9194                           ;	WDTE = OFF, WDT disabled
  9195                           ;	Power-up Timer Enable bit
  9196                           ;	PWRTE = 0x1, unprogrammed default
  9197                           ;	Brown-out Reset Enable bit
  9198                           ;	BOREN = 0x1, unprogrammed default
  9199                           ;	Low-Voltage (Single-Supply) In-Circuit Serial Programming Enable bit
  9200                           ;	LVP = 0x1, unprogrammed default
  9201                           ;	Data EEPROM Memory Code Protection bit
  9202                           ;	CPD = 0x1, unprogrammed default
  9203                           ;	Flash Program Memory Write Enable bits
  9204                           ;	WRT = 0x3, unprogrammed default
  9205                           ;	In-Circuit Debugger Mode bit
  9206                           ;	DEBUG = 0x1, unprogrammed default
  9207                           ;	Flash Program Memory Code Protection bit
  9208                           ;	CP = 0x1, unprogrammed default
  9209  2007                     	org	8199
  9210  2007  3FFB               	dw	16379
  9211                           
  9212                           	psect	maintext_split_1
  9213  0800                     u6680:
  9214  0800                     l4929:
  9215                           
  9216                           ;main.c: 226:                 clcd_print("                ", (0xC0 + 0));;main.c: 227:  
      +                                         for(unsigned int i = 0; i < 500; i++ )
  9217  0800  3006               	movlw	6
  9218  0801  00B7               	movwf	main@gear_idx^(0+384)
  9219  0802  3000               	movlw	0
  9220  0803  00B8               	movwf	(main@gear_idx^(0+384)+1)
  9221  0804                     l4931:
  9222                           
  9223                           ;main.c: 229:                 menu_flag = 0;
  9224  0804  0837               	movf	main@gear_idx^(0+384),w
  9225  0805  1283               	bcf	3,5	;RP0=0, select bank0
  9226  0806  1303               	bcf	3,6	;RP1=0, select bank0
  9227  0807  00EB               	movwf	??_main
  9228  0808  076B               	addwf	??_main,w
  9229  0809  3ED8               	addlw	(low (main@gear| 0))& (0+255)
  9230  080A  0084               	movwf	4
  9231  080B  1383               	bcf	3,7	;select IRP bank1
  9232  080C  0800               	movf	0,w
  9233  080D  00F6               	movwf	clcd_print@str
  9234  080E  0A84               	incf	4,f
  9235  080F  0800               	movf	0,w
  9236  0810  0384               	decf	4,f
  9237  0811  00F7               	movwf	clcd_print@str+1
  9238  0812  30CA               	movlw	202
  9239  0813  00ED               	movwf	??_main+2
  9240  0814  086D               	movf	??_main+2,w
  9241  0815  00F8               	movwf	clcd_print@addr
  9242  0816  160A  158A  27D1  120A  158A  	fcall	_clcd_print
  9243  081B                     l4933:
  9244                           
  9245                           ;main.c: 231:             }
  9246  081B  1683               	bsf	3,5	;RP0=1, select bank3
  9247  081C  1703               	bsf	3,6	;RP1=1, select bank3
  9248  081D  083C               	movf	(main@event_idx+1)^(0+384),w
  9249  081E  1283               	bcf	3,5	;RP0=0, select bank0
  9250  081F  1303               	bcf	3,6	;RP1=0, select bank0
  9251  0820  00A1               	movwf	write_external_eeprom@event_idx+1
  9252  0821  1683               	bsf	3,5	;RP0=1, select bank3
  9253  0822  1703               	bsf	3,6	;RP1=1, select bank3
  9254  0823  083B               	movf	main@event_idx^(0+384),w
  9255  0824  1283               	bcf	3,5	;RP0=0, select bank0
  9256  0825  1303               	bcf	3,6	;RP1=0, select bank0
  9257  0826  00A0               	movwf	write_external_eeprom@event_idx
  9258  0827  1683               	bsf	3,5	;RP0=1, select bank3
  9259  0828  1703               	bsf	3,6	;RP1=1, select bank3
  9260  0829  083B               	movf	main@event_idx^(0+384),w
  9261  082A  1283               	bcf	3,5	;RP0=0, select bank0
  9262  082B  1303               	bcf	3,6	;RP1=0, select bank0
  9263  082C  00EB               	movwf	??_main
  9264  082D  076B               	addwf	??_main,w
  9265  082E  3EC4               	addlw	(low (main@addr| 0))& (0+255)
  9266  082F  0084               	movwf	4
  9267  0830  1383               	bcf	3,7	;select IRP bank1
  9268  0831  0800               	movf	0,w
  9269  0832  00A2               	movwf	write_external_eeprom@addr
  9270  0833  0A84               	incf	4,f
  9271  0834  0800               	movf	0,w
  9272  0835  00A3               	movwf	write_external_eeprom@addr+1
  9273  0836  1683               	bsf	3,5	;RP0=1, select bank3
  9274  0837  1703               	bsf	3,6	;RP1=1, select bank3
  9275  0838  0837               	movf	main@gear_idx^(0+384),w
  9276  0839  1283               	bcf	3,5	;RP0=0, select bank0
  9277  083A  1303               	bcf	3,6	;RP1=0, select bank0
  9278  083B  00EC               	movwf	??_main+1
  9279  083C  076C               	addwf	??_main+1,w
  9280  083D  3ED8               	addlw	(low (main@gear| 0))& (0+255)
  9281  083E  0084               	movwf	4
  9282  083F  0800               	movf	0,w
  9283  0840  00A4               	movwf	write_external_eeprom@gear
  9284  0841  0A84               	incf	4,f
  9285  0842  0800               	movf	0,w
  9286  0843  0384               	decf	4,f
  9287  0844  00A5               	movwf	write_external_eeprom@gear+1
  9288  0845  160A  118A  2733  120A  158A  	fcall	_write_external_eeprom
  9289                           
  9290                           ;main.c: 232:                 password_flag = 1;
  9291  084A  3001               	movlw	1
  9292  084B  1683               	bsf	3,5	;RP0=1, select bank3
  9293  084C  1703               	bsf	3,6	;RP1=1, select bank3
  9294  084D  07B5               	addwf	main@event_count^(0+384),f
  9295  084E  1803               	skipnc
  9296  084F  0AB6               	incf	(main@event_count+1)^(0+384),f
  9297  0850  3000               	movlw	0
  9298  0851  07B6               	addwf	(main@event_count+1)^(0+384),f
  9299  0852                     l4935:
  9300                           
  9301                           ;main.c: 233:                 gear_flag = 0;
  9302  0852  3001               	movlw	1
  9303  0853  07BB               	addwf	main@event_idx^(0+384),f
  9304  0854  1803               	skipnc
  9305  0855  0ABC               	incf	(main@event_idx+1)^(0+384),f
  9306  0856  3000               	movlw	0
  9307  0857  07BC               	addwf	(main@event_idx+1)^(0+384),f
  9308  0858  300A               	movlw	10
  9309  0859  063B               	xorwf	main@event_idx^(0+384),w
  9310  085A  043C               	iorwf	(main@event_idx+1)^(0+384),w
  9311  085B  1D03               	btfss	3,2
  9312  085C  285E               	goto	u6691
  9313  085D  285F               	goto	u6690
  9314  085E                     u6691:
  9315  085E  2B5C               	goto	l294
  9316  085F                     u6690:
  9317  085F                     l4937:
  9318                           
  9319                           ;main.c: 234: ;main.c: 235:                 unsigned int time_count_increment = 0;
  9320  085F  01BB               	clrf	main@event_idx^(0+384)
  9321  0860  01BC               	clrf	(main@event_idx+1)^(0+384)
  9322  0861  2B2E               	goto	u6920
  9323  0862                     l4939:
  9324                           
  9325                           ;main.c: 242:                     {;main.c: 243:                         menu_flag = !me
      +                          nu_flag;
  9326  0862  3005               	movlw	low (STR_15| (0+32768))
  9327  0863  00F6               	movwf	clcd_print@str
  9328  0864  3091               	movlw	high (STR_15| (0+32768))
  9329  0865  00F7               	movwf	clcd_print@str+1
  9330  0866  3080               	movlw	128
  9331  0867  1283               	bcf	3,5	;RP0=0, select bank0
  9332  0868  1303               	bcf	3,6	;RP1=0, select bank0
  9333  0869  00EB               	movwf	??_main
  9334  086A  086B               	movf	??_main,w
  9335  086B  00F8               	movwf	clcd_print@addr
  9336  086C  160A  158A  27D1  120A  158A  	fcall	_clcd_print
  9337  0871                     l4941:
  9338                           
  9339                           ;main.c: 244:                         clcd_print("                ", (0x80 + 0));
  9340  0871  1683               	bsf	3,5	;RP0=1, select bank1
  9341  0872  1303               	bcf	3,6	;RP1=0, select bank1
  9342  0873  0866               	movf	main@password_flag^(0+128),w
  9343  0874  0467               	iorwf	(main@password_flag+1)^(0+128),w
  9344  0875  1D03               	btfss	3,2
  9345  0876  2878               	goto	u6701
  9346  0877  2879               	goto	u6700
  9347  0878                     u6701:
  9348  0878  28DF               	goto	l4965
  9349  0879                     u6700:
  9350  0879                     l4943:
  9351  0879  160A  118A  253A  120A  158A  	fcall	_check_password
  9352  087E  1283               	bcf	3,5	;RP0=0, select bank0
  9353  087F  1303               	bcf	3,6	;RP1=0, select bank0
  9354  0880  0320               	decf	?_check_password,w
  9355  0881  0421               	iorwf	?_check_password+1,w
  9356  0882  1903               	btfsc	3,2
  9357  0883  2885               	goto	u6711
  9358  0884  2886               	goto	u6710
  9359  0885                     u6711:
  9360  0885  28DF               	goto	l4965
  9361  0886                     u6710:
  9362  0886                     l4945:
  9363                           
  9364                           ;main.c: 245:                         clcd_print("                ", (0xC0 + 0));;main.c
      +                          : 246:                         menu_select = 0xFF;
  9365  0886  30F4               	movlw	low (STR_16| (0+32768))
  9366  0887  00F6               	movwf	clcd_print@str
  9367  0888  3090               	movlw	high (STR_16| (0+32768))
  9368  0889  00F7               	movwf	clcd_print@str+1
  9369  088A  3080               	movlw	128
  9370  088B  00EB               	movwf	??_main
  9371  088C  086B               	movf	??_main,w
  9372  088D  00F8               	movwf	clcd_print@addr
  9373  088E  160A  158A  27D1  120A  158A  	fcall	_clcd_print
  9374                           
  9375                           ;main.c: 247:                         break;
  9376  0893  3028               	movlw	low (STR_1| (0+32768))
  9377  0894  00F6               	movwf	clcd_print@str
  9378  0895  3090               	movlw	high (STR_1| (0+32768))
  9379  0896  00F7               	movwf	clcd_print@str+1
  9380  0897  30C0               	movlw	192
  9381  0898  1283               	bcf	3,5	;RP0=0, select bank0
  9382  0899  1303               	bcf	3,6	;RP1=0, select bank0
  9383  089A  00EB               	movwf	??_main
  9384  089B  086B               	movf	??_main,w
  9385  089C  00F8               	movwf	clcd_print@addr
  9386  089D  160A  158A  27D1  120A  158A  	fcall	_clcd_print
  9387  08A2                     l4947:
  9388                           
  9389                           ;main.c: 248:                     }
  9390  08A2  1683               	bsf	3,5	;RP0=1, select bank1
  9391  08A3  1303               	bcf	3,6	;RP1=0, select bank1
  9392  08A4  01EC               	clrf	main@i^(0+128)
  9393  08A5  01ED               	clrf	(main@i+1)^(0+128)
  9394  08A6                     l4949:
  9395  08A6  3001               	movlw	1
  9396  08A7  026D               	subwf	(main@i+1)^(0+128),w
  9397  08A8  30F4               	movlw	244
  9398  08A9  1903               	skipnz
  9399  08AA  026C               	subwf	main@i^(0+128),w
  9400  08AB  1C03               	skipc
  9401  08AC  28AE               	goto	u6721
  9402  08AD  28AF               	goto	u6720
  9403  08AE                     u6721:
  9404  08AE  28B0               	goto	l4953
  9405  08AF                     u6720:
  9406  08AF  28DA               	goto	l4963
  9407  08B0                     l4953:
  9408                           
  9409                           ;main.c: 249: 
  9410  08B0  01EE               	clrf	main@j^(0+128)
  9411  08B1  01EF               	clrf	(main@j+1)^(0+128)
  9412  08B2                     l4955:
  9413  08B2  3001               	movlw	1
  9414  08B3  026F               	subwf	(main@j+1)^(0+128),w
  9415  08B4  30F4               	movlw	244
  9416  08B5  1903               	skipnz
  9417  08B6  026E               	subwf	main@j^(0+128),w
  9418  08B7  1C03               	skipc
  9419  08B8  28BA               	goto	u6731
  9420  08B9  28BB               	goto	u6730
  9421  08BA                     u6731:
  9422  08BA  28BC               	goto	l4959
  9423  08BB                     u6730:
  9424  08BB  28CB               	goto	l4961
  9425  08BC                     l4959:
  9426  08BC  3001               	movlw	1
  9427  08BD  07EE               	addwf	main@j^(0+128),f
  9428  08BE  1803               	skipnc
  9429  08BF  0AEF               	incf	(main@j+1)^(0+128),f
  9430  08C0  3000               	movlw	0
  9431  08C1  07EF               	addwf	(main@j+1)^(0+128),f
  9432  08C2  3001               	movlw	1
  9433  08C3  026F               	subwf	(main@j+1)^(0+128),w
  9434  08C4  30F4               	movlw	244
  9435  08C5  1903               	skipnz
  9436  08C6  026E               	subwf	main@j^(0+128),w
  9437  08C7  1C03               	skipc
  9438  08C8  28CA               	goto	u6741
  9439  08C9  28CB               	goto	u6740
  9440  08CA                     u6741:
  9441  08CA  28BC               	goto	l4959
  9442  08CB                     u6740:
  9443  08CB                     l4961:
  9444  08CB  3001               	movlw	1
  9445  08CC  07EC               	addwf	main@i^(0+128),f
  9446  08CD  1803               	skipnc
  9447  08CE  0AED               	incf	(main@i+1)^(0+128),f
  9448  08CF  3000               	movlw	0
  9449  08D0  07ED               	addwf	(main@i+1)^(0+128),f
  9450  08D1  3001               	movlw	1
  9451  08D2  026D               	subwf	(main@i+1)^(0+128),w
  9452  08D3  30F4               	movlw	244
  9453  08D4  1903               	skipnz
  9454  08D5  026C               	subwf	main@i^(0+128),w
  9455  08D6  1C03               	skipc
  9456  08D7  28D9               	goto	u6751
  9457  08D8  28DA               	goto	u6750
  9458  08D9                     u6751:
  9459  08D9  28B0               	goto	l4953
  9460  08DA                     u6750:
  9461  08DA                     l4963:
  9462                           
  9463                           ;main.c: 250:                     if(key_level == 5)
  9464  08DA  1683               	bsf	3,5	;RP0=1, select bank3
  9465  08DB  1703               	bsf	3,6	;RP1=1, select bank3
  9466  08DC  01B2               	clrf	main@menu_flag^(0+384)
  9467  08DD  01B3               	clrf	(main@menu_flag+1)^(0+384)
  9468                           
  9469                           ;main.c: 251:                     {
  9470  08DE  2B2E               	goto	u6920
  9471  08DF                     l4965:
  9472                           
  9473                           ;main.c: 253:                         if(time_count_increment > 10)
  9474  08DF  3001               	movlw	1
  9475  08E0  1683               	bsf	3,5	;RP0=1, select bank1
  9476  08E1  1303               	bcf	3,6	;RP1=0, select bank1
  9477  08E2  00E6               	movwf	main@password_flag^(0+128)
  9478  08E3  3000               	movlw	0
  9479  08E4  00E7               	movwf	(main@password_flag^(0+128)+1)
  9480  08E5                     l4967:
  9481                           
  9482                           ;main.c: 254:                         {
  9483  08E5  01EA               	clrf	main@gear_flag^(0+128)
  9484  08E6  01EB               	clrf	(main@gear_flag+1)^(0+128)
  9485  08E7                     l4969:
  9486                           
  9487                           ;main.c: 256:                             break;
  9488  08E7  1683               	bsf	3,5	;RP0=1, select bank3
  9489  08E8  1703               	bsf	3,6	;RP1=1, select bank3
  9490  08E9  01A3               	clrf	main@time_count_increment^(0+384)
  9491  08EA  01A4               	clrf	(main@time_count_increment+1)^(0+384)
  9492  08EB                     l4971:
  9493                           
  9494                           ;main.c: 258:                     };main.c: 259:                     else if(time_count_
      +                          increment != 0)
  9495  08EB  3001               	movlw	1
  9496  08EC  160A  158A  274E  120A  158A  	fcall	_read_matrix_keypad
  9497  08F1  1283               	bcf	3,5	;RP0=0, select bank0
  9498  08F2  1303               	bcf	3,6	;RP1=0, select bank0
  9499  08F3  00EB               	movwf	??_main
  9500  08F4  086B               	movf	??_main,w
  9501  08F5  1683               	bsf	3,5	;RP0=1, select bank3
  9502  08F6  1703               	bsf	3,6	;RP1=1, select bank3
  9503  08F7  00BD               	movwf	main@key_state^(0+384)
  9504  08F8                     l4973:
  9505                           
  9506                           ;main.c: 260:                     {
  9507  08F8  3000               	movlw	0
  9508  08F9  160A  158A  274E  120A  158A  	fcall	_read_matrix_keypad
  9509  08FE  1283               	bcf	3,5	;RP0=0, select bank0
  9510  08FF  1303               	bcf	3,6	;RP1=0, select bank0
  9511  0900  00EB               	movwf	??_main
  9512  0901  086B               	movf	??_main,w
  9513  0902  1683               	bsf	3,5	;RP0=1, select bank3
  9514  0903  1703               	bsf	3,6	;RP1=1, select bank3
  9515  0904  00AD               	movwf	main@key_level^(0+384)
  9516  0905                     l4975:
  9517                           
  9518                           ;main.c: 262:                             menu_select = 0;
  9519  0905  3004               	movlw	4
  9520  0906  063D               	xorwf	main@key_state^(0+384),w
  9521  0907  1D03               	btfss	3,2
  9522  0908  290A               	goto	u6761
  9523  0909  290B               	goto	u6760
  9524  090A                     u6761:
  9525  090A  2946               	goto	l4985
  9526  090B                     u6760:
  9527  090B                     l4977:
  9528                           
  9529                           ;main.c: 263:                         time_count_increment = 0;;main.c: 264: 
  9530  090B  0832               	movf	main@menu_flag^(0+384),w
  9531  090C  0433               	iorwf	(main@menu_flag+1)^(0+384),w
  9532  090D  1903               	btfsc	3,2
  9533  090E  2910               	goto	u6771
  9534  090F  2912               	goto	u6770
  9535  0910                     u6771:
  9536  0910  3001               	movlw	1
  9537  0911  2913               	goto	u6780
  9538  0912                     u6770:
  9539  0912  3000               	movlw	0
  9540  0913                     u6780:
  9541  0913  1283               	bcf	3,5	;RP0=0, select bank0
  9542  0914  1303               	bcf	3,6	;RP1=0, select bank0
  9543  0915  00EB               	movwf	??_main
  9544  0916  01EC               	clrf	??_main+1
  9545  0917  086B               	movf	??_main,w
  9546  0918  1683               	bsf	3,5	;RP0=1, select bank3
  9547  0919  1703               	bsf	3,6	;RP1=1, select bank3
  9548  091A  00B2               	movwf	main@menu_flag^(0+384)
  9549  091B  1283               	bcf	3,5	;RP0=0, select bank0
  9550  091C  1303               	bcf	3,6	;RP1=0, select bank0
  9551  091D  086C               	movf	??_main+1,w
  9552  091E  1683               	bsf	3,5	;RP0=1, select bank3
  9553  091F  1703               	bsf	3,6	;RP1=1, select bank3
  9554  0920  00B3               	movwf	(main@menu_flag+1)^(0+384)
  9555  0921                     l4979:
  9556                           
  9557                           ;main.c: 265:                     }
  9558  0921  3028               	movlw	low (STR_1| (0+32768))
  9559  0922  00F6               	movwf	clcd_print@str
  9560  0923  3090               	movlw	high (STR_1| (0+32768))
  9561  0924  00F7               	movwf	clcd_print@str+1
  9562  0925  3080               	movlw	128
  9563  0926  1283               	bcf	3,5	;RP0=0, select bank0
  9564  0927  1303               	bcf	3,6	;RP1=0, select bank0
  9565  0928  00EB               	movwf	??_main
  9566  0929  086B               	movf	??_main,w
  9567  092A  00F8               	movwf	clcd_print@addr
  9568  092B  160A  158A  27D1  120A  158A  	fcall	_clcd_print
  9569  0930                     l4981:
  9570                           
  9571                           ;main.c: 266:                     if(key_state == 6)
  9572  0930  3028               	movlw	low (STR_1| (0+32768))
  9573  0931  00F6               	movwf	clcd_print@str
  9574  0932  3090               	movlw	high (STR_1| (0+32768))
  9575  0933  00F7               	movwf	clcd_print@str+1
  9576  0934  30C0               	movlw	192
  9577  0935  1283               	bcf	3,5	;RP0=0, select bank0
  9578  0936  1303               	bcf	3,6	;RP1=0, select bank0
  9579  0937  00EB               	movwf	??_main
  9580  0938  086B               	movf	??_main,w
  9581  0939  00F8               	movwf	clcd_print@addr
  9582  093A  160A  158A  27D1  120A  158A  	fcall	_clcd_print
  9583  093F                     l4983:
  9584                           
  9585                           ;main.c: 267:                     {
  9586  093F  30FF               	movlw	255
  9587  0940  1683               	bsf	3,5	;RP0=1, select bank3
  9588  0941  1703               	bsf	3,6	;RP1=1, select bank3
  9589  0942  00B9               	movwf	main@menu_select^(0+384)
  9590  0943  3000               	movlw	0
  9591  0944  00BA               	movwf	(main@menu_select^(0+384)+1)
  9592                           
  9593                           ;main.c: 268:                         if(--menu_select == -1)
  9594  0945  2B06               	goto	l5035
  9595  0946                     l4985:
  9596                           
  9597                           ;main.c: 271: 
  9598  0946  3005               	movlw	5
  9599  0947  062D               	xorwf	main@key_level^(0+384),w
  9600  0948  1D03               	btfss	3,2
  9601  0949  294B               	goto	u6791
  9602  094A  294C               	goto	u6790
  9603  094B                     u6791:
  9604  094B  295E               	goto	l4991
  9605  094C                     u6790:
  9606  094C                     l4987:
  9607                           
  9608                           ;main.c: 272:                     switch(menu_select);main.c: 273:                     {
  9609  094C  3001               	movlw	1
  9610  094D  07A3               	addwf	main@time_count_increment^(0+384),f
  9611  094E  1803               	skipnc
  9612  094F  0AA4               	incf	(main@time_count_increment+1)^(0+384),f
  9613  0950  3000               	movlw	0
  9614  0951  07A4               	addwf	(main@time_count_increment+1)^(0+384),f
  9615                           
  9616                           ;main.c: 274:                         case 0:
  9617  0952  3000               	movlw	0
  9618  0953  0224               	subwf	(main@time_count_increment+1)^(0+384),w
  9619  0954  300B               	movlw	11
  9620  0955  1903               	skipnz
  9621  0956  0223               	subwf	main@time_count_increment^(0+384),w
  9622  0957  1C03               	skipc
  9623  0958  295A               	goto	u6801
  9624  0959  295B               	goto	u6800
  9625  095A                     u6801:
  9626  095A  2975               	goto	l4997
  9627  095B                     u6800:
  9628  095B                     l4989:
  9629                           
  9630                           ;main.c: 275:                         {;main.c: 276:                             if(time
      +                          _count_isr >= 10000)
  9631  095B  01A3               	clrf	main@time_count_increment^(0+384)
  9632  095C  01A4               	clrf	(main@time_count_increment+1)^(0+384)
  9633                           
  9634                           ;main.c: 277:                             {
  9635  095D  2B06               	goto	l5035
  9636  095E                     l4991:
  9637  095E  0823               	movf	main@time_count_increment^(0+384),w
  9638  095F  0424               	iorwf	(main@time_count_increment+1)^(0+384),w
  9639  0960  1903               	btfsc	3,2
  9640  0961  2963               	goto	u6811
  9641  0962  2964               	goto	u6810
  9642  0963                     u6811:
  9643  0963  2975               	goto	l4997
  9644  0964                     u6810:
  9645  0964                     l4993:
  9646                           
  9647                           ;main.c: 281:                             else;main.c: 282:                             
      +                          {
  9648  0964  3001               	movlw	1
  9649  0965  07B9               	addwf	main@menu_select^(0+384),f
  9650  0966  1803               	skipnc
  9651  0967  0ABA               	incf	(main@menu_select+1)^(0+384),f
  9652  0968  3000               	movlw	0
  9653  0969  07BA               	addwf	(main@menu_select+1)^(0+384),f
  9654  096A  3005               	movlw	5
  9655  096B  0639               	xorwf	main@menu_select^(0+384),w
  9656  096C  043A               	iorwf	(main@menu_select+1)^(0+384),w
  9657  096D  1D03               	btfss	3,2
  9658  096E  2970               	goto	u6821
  9659  096F  2971               	goto	u6820
  9660  0970                     u6821:
  9661  0970  2973               	goto	l271
  9662  0971                     u6820:
  9663  0971                     l4995:
  9664                           
  9665                           ;main.c: 283:                                 clcd_print("   MENU         ", (0x80 + 0))
      +                          ;
  9666  0971  01B9               	clrf	main@menu_select^(0+384)
  9667  0972  01BA               	clrf	(main@menu_select+1)^(0+384)
  9668  0973                     l271:
  9669                           
  9670                           ;main.c: 284:                                 clcd_print("-> View log     ", (0xC0 + 0))
      +                          ;
  9671  0973  01A3               	clrf	main@time_count_increment^(0+384)
  9672  0974  01A4               	clrf	(main@time_count_increment+1)^(0+384)
  9673  0975                     l4997:
  9674                           
  9675                           ;main.c: 287:                             break;
  9676  0975  3006               	movlw	6
  9677  0976  063D               	xorwf	main@key_state^(0+384),w
  9678  0977  1D03               	btfss	3,2
  9679  0978  297A               	goto	u6831
  9680  0979  297B               	goto	u6830
  9681  097A                     u6831:
  9682  097A  2AF0               	goto	l5033
  9683  097B                     u6830:
  9684  097B                     l4999:
  9685                           
  9686                           ;main.c: 288:                         };main.c: 289:                         case 1:
  9687  097B  30FF               	movlw	255
  9688  097C  07B9               	addwf	main@menu_select^(0+384),f
  9689  097D  1803               	skipnc
  9690  097E  0ABA               	incf	(main@menu_select+1)^(0+384),f
  9691  097F  30FF               	movlw	255
  9692  0980  07BA               	addwf	(main@menu_select+1)^(0+384),f
  9693  0981  0A39               	incf	main@menu_select^(0+384),w
  9694  0982  1D03               	skipz
  9695  0983  2988               	goto	u6841
  9696  0984  0A3A               	incf	(main@menu_select+1)^(0+384),w
  9697  0985  1D03               	btfss	3,2
  9698  0986  2988               	goto	u6841
  9699  0987  2989               	goto	u6840
  9700  0988                     u6841:
  9701  0988  2AF0               	goto	l5033
  9702  0989                     u6840:
  9703  0989                     l5001:
  9704                           
  9705                           ;main.c: 290:                         {
  9706  0989  3004               	movlw	4
  9707  098A  00B9               	movwf	main@menu_select^(0+384)
  9708  098B  3000               	movlw	0
  9709  098C  00BA               	movwf	(main@menu_select^(0+384)+1)
  9710  098D  2AF0               	goto	l5033
  9711  098E                     l5003:
  9712                           
  9713                           ;main.c: 296:                             else;main.c: 297:                             
      +                          {
  9714  098E  3027               	movlw	39
  9715  098F  027B               	subwf	_time_count_isr+1,w
  9716  0990  3010               	movlw	16
  9717  0991  1903               	skipnz
  9718  0992  027A               	subwf	_time_count_isr,w
  9719  0993  1C03               	skipc
  9720  0994  2996               	goto	u6851
  9721  0995  2997               	goto	u6850
  9722  0996                     u6851:
  9723  0996  29B6               	goto	l5007
  9724  0997                     u6850:
  9725  0997                     l5005:
  9726                           
  9727                           ;main.c: 298:                                 clcd_print("-> Set time     ", (0x80 + 0))
      +                          ;;main.c: 299:                                 clcd_print("   Change passwd", (0xC0 + 0)
      +                          );
  9728  0997  3039               	movlw	low (STR_20| (0+32768))
  9729  0998  00F6               	movwf	clcd_print@str
  9730  0999  3090               	movlw	high (STR_20| (0+32768))
  9731  099A  00F7               	movwf	clcd_print@str+1
  9732  099B  3080               	movlw	128
  9733  099C  1283               	bcf	3,5	;RP0=0, select bank0
  9734  099D  1303               	bcf	3,6	;RP1=0, select bank0
  9735  099E  00EB               	movwf	??_main
  9736  099F  086B               	movf	??_main,w
  9737  09A0  00F8               	movwf	clcd_print@addr
  9738  09A1  160A  158A  27D1  120A  158A  	fcall	_clcd_print
  9739                           
  9740                           ;main.c: 300:                             }
  9741  09A6  306C               	movlw	low (STR_21| (0+32768))
  9742  09A7  00F6               	movwf	clcd_print@str
  9743  09A8  3090               	movlw	high (STR_21| (0+32768))
  9744  09A9  00F7               	movwf	clcd_print@str+1
  9745  09AA  30C0               	movlw	192
  9746  09AB  1283               	bcf	3,5	;RP0=0, select bank0
  9747  09AC  1303               	bcf	3,6	;RP1=0, select bank0
  9748  09AD  00EB               	movwf	??_main
  9749  09AE  086B               	movf	??_main,w
  9750  09AF  00F8               	movwf	clcd_print@addr
  9751  09B0  160A  158A  27D1  120A  158A  	fcall	_clcd_print
  9752                           
  9753                           ;main.c: 301: 
  9754  09B5  28EB               	goto	l4971
  9755  09B6                     l5007:
  9756                           
  9757                           ;main.c: 303: ;main.c: 304:                         }
  9758  09B6  3039               	movlw	low (STR_20| (0+32768))
  9759  09B7  00F6               	movwf	clcd_print@str
  9760  09B8  3090               	movlw	high (STR_20| (0+32768))
  9761  09B9  00F7               	movwf	clcd_print@str+1
  9762  09BA  3080               	movlw	128
  9763  09BB  1283               	bcf	3,5	;RP0=0, select bank0
  9764  09BC  1303               	bcf	3,6	;RP1=0, select bank0
  9765  09BD  00EB               	movwf	??_main
  9766  09BE  086B               	movf	??_main,w
  9767  09BF  00F8               	movwf	clcd_print@addr
  9768  09C0  160A  158A  27D1  120A  158A  	fcall	_clcd_print
  9769                           
  9770                           ;main.c: 305:                         case 2:
  9771  09C5  307D               	movlw	low (STR_23| (0+32768))
  9772  09C6  00F6               	movwf	clcd_print@str
  9773  09C7  3090               	movlw	high (STR_23| (0+32768))
  9774  09C8  00F7               	movwf	clcd_print@str+1
  9775  09C9  30C0               	movlw	192
  9776  09CA  1283               	bcf	3,5	;RP0=0, select bank0
  9777  09CB  1303               	bcf	3,6	;RP1=0, select bank0
  9778  09CC  00EB               	movwf	??_main
  9779  09CD  086B               	movf	??_main,w
  9780  09CE  00F8               	movwf	clcd_print@addr
  9781  09CF  160A  158A  27D1  120A  158A  	fcall	_clcd_print
  9782  09D4  28EB               	goto	l4971
  9783  09D5                     l5009:
  9784                           
  9785                           ;main.c: 311:                             };main.c: 312:                             {
  9786  09D5  3027               	movlw	39
  9787  09D6  027B               	subwf	_time_count_isr+1,w
  9788  09D7  3010               	movlw	16
  9789  09D8  1903               	skipnz
  9790  09D9  027A               	subwf	_time_count_isr,w
  9791  09DA  1C03               	skipc
  9792  09DB  29DD               	goto	u6861
  9793  09DC  29DE               	goto	u6860
  9794  09DD                     u6861:
  9795  09DD  29FD               	goto	l5013
  9796  09DE                     u6860:
  9797  09DE                     l5011:
  9798                           
  9799                           ;main.c: 313:                                 clcd_print("   Set time     ", (0x80 + 0))
      +                          ;;main.c: 314:                                 clcd_print("-> Change passwd", (0xC0 + 0)
      +                          );
  9800  09DE  304A               	movlw	low (STR_24| (0+32768))
  9801  09DF  00F6               	movwf	clcd_print@str
  9802  09E0  3090               	movlw	high (STR_24| (0+32768))
  9803  09E1  00F7               	movwf	clcd_print@str+1
  9804  09E2  3080               	movlw	128
  9805  09E3  1283               	bcf	3,5	;RP0=0, select bank0
  9806  09E4  1303               	bcf	3,6	;RP1=0, select bank0
  9807  09E5  00EB               	movwf	??_main
  9808  09E6  086B               	movf	??_main,w
  9809  09E7  00F8               	movwf	clcd_print@addr
  9810  09E8  160A  158A  27D1  120A  158A  	fcall	_clcd_print
  9811                           
  9812                           ;main.c: 315: 
  9813  09ED  307C               	movlw	low (STR_25| (0+32768))
  9814  09EE  00F6               	movwf	clcd_print@str
  9815  09EF  3091               	movlw	high (STR_25| (0+32768))
  9816  09F0  00F7               	movwf	clcd_print@str+1
  9817  09F1  30C0               	movlw	192
  9818  09F2  1283               	bcf	3,5	;RP0=0, select bank0
  9819  09F3  1303               	bcf	3,6	;RP1=0, select bank0
  9820  09F4  00EB               	movwf	??_main
  9821  09F5  086B               	movf	??_main,w
  9822  09F6  00F8               	movwf	clcd_print@addr
  9823  09F7  160A  158A  27D1  120A  158A  	fcall	_clcd_print
  9824                           
  9825                           ;main.c: 316:                             }
  9826  09FC  28EB               	goto	l4971
  9827  09FD                     l5013:
  9828                           
  9829                           ;main.c: 318:                             break;;main.c: 319:                         }
  9830  09FD  305B               	movlw	low (STR_26| (0+32768))
  9831  09FE  00F6               	movwf	clcd_print@str
  9832  09FF  3090               	movlw	high (STR_26| (0+32768))
  9833  0A00  00F7               	movwf	clcd_print@str+1
  9834  0A01  3080               	movlw	128
  9835  0A02  1283               	bcf	3,5	;RP0=0, select bank0
  9836  0A03  1303               	bcf	3,6	;RP1=0, select bank0
  9837  0A04  00EB               	movwf	??_main
  9838  0A05  086B               	movf	??_main,w
  9839  0A06  00F8               	movwf	clcd_print@addr
  9840  0A07  160A  158A  27D1  120A  158A  	fcall	_clcd_print
  9841                           
  9842                           ;main.c: 320: 
  9843  0A0C  307C               	movlw	low (STR_25| (0+32768))
  9844  0A0D  00F6               	movwf	clcd_print@str
  9845  0A0E  3091               	movlw	high (STR_25| (0+32768))
  9846  0A0F  00F7               	movwf	clcd_print@str+1
  9847  0A10  30C0               	movlw	192
  9848  0A11  1283               	bcf	3,5	;RP0=0, select bank0
  9849  0A12  1303               	bcf	3,6	;RP1=0, select bank0
  9850  0A13  00EB               	movwf	??_main
  9851  0A14  086B               	movf	??_main,w
  9852  0A15  00F8               	movwf	clcd_print@addr
  9853  0A16  160A  158A  27D1  120A  158A  	fcall	_clcd_print
  9854  0A1B  28EB               	goto	l4971
  9855  0A1C                     l5015:
  9856                           
  9857                           ;main.c: 327:                             };main.c: 328:                             els
      +                          e
  9858  0A1C  3027               	movlw	39
  9859  0A1D  027B               	subwf	_time_count_isr+1,w
  9860  0A1E  3010               	movlw	16
  9861  0A1F  1903               	skipnz
  9862  0A20  027A               	subwf	_time_count_isr,w
  9863  0A21  1C03               	skipc
  9864  0A22  2A24               	goto	u6871
  9865  0A23  2A25               	goto	u6870
  9866  0A24                     u6871:
  9867  0A24  2A43               	goto	l283
  9868  0A25                     u6870:
  9869  0A25                     l5017:
  9870                           
  9871                           ;main.c: 329:                             {;main.c: 330:                                
      +                           clcd_print("-> Clear log    ", (0x80 + 0));
  9872  0A25  304A               	movlw	low (STR_24| (0+32768))
  9873  0A26  00F6               	movwf	clcd_print@str
  9874  0A27  3090               	movlw	high (STR_24| (0+32768))
  9875  0A28  00F7               	movwf	clcd_print@str+1
  9876  0A29  3080               	movlw	128
  9877  0A2A  1283               	bcf	3,5	;RP0=0, select bank0
  9878  0A2B  1303               	bcf	3,6	;RP1=0, select bank0
  9879  0A2C  00EB               	movwf	??_main
  9880  0A2D  086B               	movf	??_main,w
  9881  0A2E  00F8               	movwf	clcd_print@addr
  9882  0A2F  160A  158A  27D1  120A  158A  	fcall	_clcd_print
  9883                           
  9884                           ;main.c: 331:                                 clcd_print("   download log ", (0xC0 + 0))
      +                          ;
  9885  0A34  307C               	movlw	low (STR_25| (0+32768))
  9886  0A35  00F6               	movwf	clcd_print@str
  9887  0A36  3091               	movlw	high (STR_25| (0+32768))
  9888  0A37  00F7               	movwf	clcd_print@str+1
  9889  0A38  30C0               	movlw	192
  9890  0A39  1283               	bcf	3,5	;RP0=0, select bank0
  9891  0A3A  1303               	bcf	3,6	;RP1=0, select bank0
  9892  0A3B  00EB               	movwf	??_main
  9893  0A3C  086B               	movf	??_main,w
  9894  0A3D  00F8               	movwf	clcd_print@addr
  9895  0A3E  160A  158A  27D1  120A  158A  	fcall	_clcd_print
  9896  0A43                     l283:	
  9897                           ;main.c: 332: 
  9898                           
  9899                           
  9900                           ;main.c: 333:                             };main.c: 334: 
  9901  0A43  304A               	movlw	low (STR_24| (0+32768))
  9902  0A44  00F6               	movwf	clcd_print@str
  9903  0A45  3090               	movlw	high (STR_24| (0+32768))
  9904  0A46  00F7               	movwf	clcd_print@str+1
  9905  0A47  3080               	movlw	128
  9906  0A48  1283               	bcf	3,5	;RP0=0, select bank0
  9907  0A49  1303               	bcf	3,6	;RP1=0, select bank0
  9908  0A4A  00EB               	movwf	??_main
  9909  0A4B  086B               	movf	??_main,w
  9910  0A4C  00F8               	movwf	clcd_print@addr
  9911  0A4D  160A  158A  27D1  120A  158A  	fcall	_clcd_print
  9912                           
  9913                           ;main.c: 335:                             break;
  9914  0A52  308D               	movlw	low (STR_31| (0+32768))
  9915  0A53  00F6               	movwf	clcd_print@str
  9916  0A54  3091               	movlw	high (STR_31| (0+32768))
  9917  0A55  00F7               	movwf	clcd_print@str+1
  9918  0A56  30C0               	movlw	192
  9919  0A57  1283               	bcf	3,5	;RP0=0, select bank0
  9920  0A58  1303               	bcf	3,6	;RP1=0, select bank0
  9921  0A59  00EB               	movwf	??_main
  9922  0A5A  086B               	movf	??_main,w
  9923  0A5B  00F8               	movwf	clcd_print@addr
  9924  0A5C  160A  158A  27D1  120A  158A  	fcall	_clcd_print
  9925                           
  9926                           ;main.c: 337:                         };main.c: 339:                         {
  9927  0A61  28EB               	goto	l4971
  9928  0A62                     l5019:
  9929                           
  9930                           ;main.c: 343:                                 clcd_print("   download log ", (0xC0 + 0))
      +                          ;;main.c: 344:                             }
  9931  0A62  3027               	movlw	39
  9932  0A63  027B               	subwf	_time_count_isr+1,w
  9933  0A64  3010               	movlw	16
  9934  0A65  1903               	skipnz
  9935  0A66  027A               	subwf	_time_count_isr,w
  9936  0A67  1C03               	skipc
  9937  0A68  2A6A               	goto	u6881
  9938  0A69  2A6B               	goto	u6880
  9939  0A6A                     u6881:
  9940  0A6A  2A8A               	goto	l5023
  9941  0A6B                     u6880:
  9942  0A6B                     l5021:
  9943                           
  9944                           ;main.c: 345:                             else;main.c: 346:                             
      +                          {
  9945  0A6B  308E               	movlw	low (STR_32| (0+32768))
  9946  0A6C  00F6               	movwf	clcd_print@str
  9947  0A6D  3090               	movlw	high (STR_32| (0+32768))
  9948  0A6E  00F7               	movwf	clcd_print@str+1
  9949  0A6F  3080               	movlw	128
  9950  0A70  1283               	bcf	3,5	;RP0=0, select bank0
  9951  0A71  1303               	bcf	3,6	;RP1=0, select bank0
  9952  0A72  00EB               	movwf	??_main
  9953  0A73  086B               	movf	??_main,w
  9954  0A74  00F8               	movwf	clcd_print@addr
  9955  0A75  160A  158A  27D1  120A  158A  	fcall	_clcd_print
  9956                           
  9957                           ;main.c: 347:                                 clcd_print("   Clear log    ", (0x80 + 0))
      +                          ;
  9958  0A7A  3016               	movlw	low (STR_33| (0+32768))
  9959  0A7B  00F6               	movwf	clcd_print@str
  9960  0A7C  3091               	movlw	high (STR_33| (0+32768))
  9961  0A7D  00F7               	movwf	clcd_print@str+1
  9962  0A7E  30C0               	movlw	192
  9963  0A7F  1283               	bcf	3,5	;RP0=0, select bank0
  9964  0A80  1303               	bcf	3,6	;RP1=0, select bank0
  9965  0A81  00EB               	movwf	??_main
  9966  0A82  086B               	movf	??_main,w
  9967  0A83  00F8               	movwf	clcd_print@addr
  9968  0A84  160A  158A  27D1  120A  158A  	fcall	_clcd_print
  9969                           
  9970                           ;main.c: 348:                                 clcd_print("-> download log ", (0xC0 + 0))
      +                          ;
  9971  0A89  28EB               	goto	l4971
  9972  0A8A                     l5023:
  9973                           
  9974                           ;main.c: 350:                             };main.c: 351:                             bre
      +                          ak;
  9975  0A8A  309F               	movlw	low (STR_34| (0+32768))
  9976  0A8B  00F6               	movwf	clcd_print@str
  9977  0A8C  3090               	movlw	high (STR_34| (0+32768))
  9978  0A8D  00F7               	movwf	clcd_print@str+1
  9979  0A8E  3080               	movlw	128
  9980  0A8F  1283               	bcf	3,5	;RP0=0, select bank0
  9981  0A90  1303               	bcf	3,6	;RP1=0, select bank0
  9982  0A91  00EB               	movwf	??_main
  9983  0A92  086B               	movf	??_main,w
  9984  0A93  00F8               	movwf	clcd_print@addr
  9985  0A94  160A  158A  27D1  120A  158A  	fcall	_clcd_print
  9986                           
  9987                           ;main.c: 352: 
  9988  0A99  3016               	movlw	low (STR_33| (0+32768))
  9989  0A9A  00F6               	movwf	clcd_print@str
  9990  0A9B  3091               	movlw	high (STR_33| (0+32768))
  9991  0A9C  00F7               	movwf	clcd_print@str+1
  9992  0A9D  30C0               	movlw	192
  9993  0A9E  1283               	bcf	3,5	;RP0=0, select bank0
  9994  0A9F  1303               	bcf	3,6	;RP1=0, select bank0
  9995  0AA0  00EB               	movwf	??_main
  9996  0AA1  086B               	movf	??_main,w
  9997  0AA2  00F8               	movwf	clcd_print@addr
  9998  0AA3  160A  158A  27D1  120A  158A  	fcall	_clcd_print
  9999  0AA8  28EB               	goto	l4971
 10000  0AA9                     l5025:
 10001                           
 10002                           ;main.c: 360:                 {;main.c: 361:                     if(event_count == 0)
 10003  0AA9  3027               	movlw	39
 10004  0AAA  027B               	subwf	_time_count_isr+1,w
 10005  0AAB  3010               	movlw	16
 10006  0AAC  1903               	skipnz
 10007  0AAD  027A               	subwf	_time_count_isr,w
 10008  0AAE  1C03               	skipc
 10009  0AAF  2AB1               	goto	u6891
 10010  0AB0  2AB2               	goto	u6890
 10011  0AB1                     u6891:
 10012  0AB1  2AD1               	goto	l5029
 10013  0AB2                     u6890:
 10014  0AB2                     l5027:
 10015                           
 10016                           ;main.c: 362:                     {;main.c: 363:                         clcd_print("   
      +                            Empty Log   ", (0xC0 + 0));
 10017  0AB2  308E               	movlw	low (STR_32| (0+32768))
 10018  0AB3  00F6               	movwf	clcd_print@str
 10019  0AB4  3090               	movlw	high (STR_32| (0+32768))
 10020  0AB5  00F7               	movwf	clcd_print@str+1
 10021  0AB6  3080               	movlw	128
 10022  0AB7  1283               	bcf	3,5	;RP0=0, select bank0
 10023  0AB8  1303               	bcf	3,6	;RP1=0, select bank0
 10024  0AB9  00EB               	movwf	??_main
 10025  0ABA  086B               	movf	??_main,w
 10026  0ABB  00F8               	movwf	clcd_print@addr
 10027  0ABC  160A  158A  27D1  120A  158A  	fcall	_clcd_print
 10028                           
 10029                           ;main.c: 364:                         for(unsigned int i = 0; i < 500; i++ )
 10030  0AC1  3016               	movlw	low (STR_33| (0+32768))
 10031  0AC2  00F6               	movwf	clcd_print@str
 10032  0AC3  3091               	movlw	high (STR_33| (0+32768))
 10033  0AC4  00F7               	movwf	clcd_print@str+1
 10034  0AC5  30C0               	movlw	192
 10035  0AC6  1283               	bcf	3,5	;RP0=0, select bank0
 10036  0AC7  1303               	bcf	3,6	;RP1=0, select bank0
 10037  0AC8  00EB               	movwf	??_main
 10038  0AC9  086B               	movf	??_main,w
 10039  0ACA  00F8               	movwf	clcd_print@addr
 10040  0ACB  160A  158A  27D1  120A  158A  	fcall	_clcd_print
 10041                           
 10042                           ;main.c: 365:                             for(unsigned int j = 0; j < 500; j++ );
 10043  0AD0  28EB               	goto	l4971
 10044  0AD1                     l5029:
 10045                           
 10046                           ;main.c: 367:                         continue;;main.c: 368: 
 10047  0AD1  308E               	movlw	low (STR_32| (0+32768))
 10048  0AD2  00F6               	movwf	clcd_print@str
 10049  0AD3  3090               	movlw	high (STR_32| (0+32768))
 10050  0AD4  00F7               	movwf	clcd_print@str+1
 10051  0AD5  3080               	movlw	128
 10052  0AD6  1283               	bcf	3,5	;RP0=0, select bank0
 10053  0AD7  1303               	bcf	3,6	;RP1=0, select bank0
 10054  0AD8  00EB               	movwf	??_main
 10055  0AD9  086B               	movf	??_main,w
 10056  0ADA  00F8               	movwf	clcd_print@addr
 10057  0ADB  160A  158A  27D1  120A  158A  	fcall	_clcd_print
 10058                           
 10059                           ;main.c: 369:                     }
 10060  0AE0  3027               	movlw	low (STR_39| (0+32768))
 10061  0AE1  00F6               	movwf	clcd_print@str
 10062  0AE2  3091               	movlw	high (STR_39| (0+32768))
 10063  0AE3  00F7               	movwf	clcd_print@str+1
 10064  0AE4  30C0               	movlw	192
 10065  0AE5  1283               	bcf	3,5	;RP0=0, select bank0
 10066  0AE6  1303               	bcf	3,6	;RP1=0, select bank0
 10067  0AE7  00EB               	movwf	??_main
 10068  0AE8  086B               	movf	??_main,w
 10069  0AE9  00F8               	movwf	clcd_print@addr
 10070  0AEA  160A  158A  27D1  120A  158A  	fcall	_clcd_print
 10071  0AEF  28EB               	goto	l4971
 10072  0AF0                     l5033:
 10073                           
 10074                           ; Switch on 2 bytes has been partitioned into a top level switch of size 1, and 1 sub-sw
      +                          itches
 10075                           ; Switch size 1, requested type "simple"
 10076                           ; Number of cases is 1, Range of values is 0 to 0
 10077                           ; switch strategies available:
 10078                           ; Name         Instructions Cycles
 10079                           ; simple_byte            4     3 (average)
 10080                           ; direct_byte           11     8 (fixed)
 10081                           ; jumptable            260     6 (fixed)
 10082                           ;	Chosen strategy is simple_byte
 10083  0AF0  083A               	movf	(main@menu_select+1)^(0+384),w
 10084  0AF1  3A00               	xorlw	0	; case 0
 10085  0AF2  1903               	skipnz
 10086  0AF3  2AF5               	goto	l5367
 10087  0AF4  28EB               	goto	l4971
 10088  0AF5                     l5367:
 10089                           
 10090                           ; Switch size 1, requested type "simple"
 10091                           ; Number of cases is 5, Range of values is 0 to 4
 10092                           ; switch strategies available:
 10093                           ; Name         Instructions Cycles
 10094                           ; simple_byte           16     9 (average)
 10095                           ; direct_byte           23     8 (fixed)
 10096                           ; jumptable            260     6 (fixed)
 10097                           ;	Chosen strategy is simple_byte
 10098  0AF5  0839               	movf	main@menu_select^(0+384),w
 10099  0AF6  3A00               	xorlw	0	; case 0
 10100  0AF7  1903               	skipnz
 10101  0AF8  298E               	goto	l5003
 10102  0AF9  3A01               	xorlw	1	; case 1
 10103  0AFA  1903               	skipnz
 10104  0AFB  29D5               	goto	l5009
 10105  0AFC  3A03               	xorlw	3	; case 2
 10106  0AFD  1903               	skipnz
 10107  0AFE  2A1C               	goto	l5015
 10108  0AFF  3A01               	xorlw	1	; case 3
 10109  0B00  1903               	skipnz
 10110  0B01  2A62               	goto	l5019
 10111  0B02  3A07               	xorlw	7	; case 4
 10112  0B03  1903               	skipnz
 10113  0B04  2AA9               	goto	l5025
 10114  0B05  28EB               	goto	l4971
 10115  0B06                     l5035:
 10116                           
 10117                           ;main.c: 380:                         if(key_state == 4)
 10118  0B06  0839               	movf	main@menu_select^(0+384),w
 10119  0B07  043A               	iorwf	(main@menu_select+1)^(0+384),w
 10120  0B08  1D03               	btfss	3,2
 10121  0B09  2B0B               	goto	u6901
 10122  0B0A  2B0C               	goto	u6900
 10123  0B0B                     u6901:
 10124  0B0B  2C5E               	goto	l5111
 10125  0B0C                     u6900:
 10126  0B0C                     l5037:
 10127                           
 10128                           ;main.c: 381:                         {;main.c: 382:                             menu_fl
      +                          ag = !menu_flag;
 10129  0B0C  0835               	movf	main@event_count^(0+384),w
 10130  0B0D  0436               	iorwf	(main@event_count+1)^(0+384),w
 10131  0B0E  1D03               	btfss	3,2
 10132  0B0F  2B11               	goto	u6911
 10133  0B10  2B12               	goto	u6910
 10134  0B11                     u6911:
 10135  0B11  2B5D               	goto	l5057
 10136  0B12                     u6910:
 10137  0B12                     l5039:
 10138                           
 10139                           ;main.c: 383:                             clcd_print("                ", (0x80 + 0));;ma
      +                          in.c: 384:                             clcd_print("                ", (0xC0 + 0));
 10140  0B12  3016               	movlw	low (STR_40| (0+32768))
 10141  0B13  00F6               	movwf	clcd_print@str
 10142  0B14  3090               	movlw	high (STR_40| (0+32768))
 10143  0B15  00F7               	movwf	clcd_print@str+1
 10144  0B16  30C0               	movlw	192
 10145  0B17  1283               	bcf	3,5	;RP0=0, select bank0
 10146  0B18  1303               	bcf	3,6	;RP1=0, select bank0
 10147  0B19  00EB               	movwf	??_main
 10148  0B1A  086B               	movf	??_main,w
 10149  0B1B  00F8               	movwf	clcd_print@addr
 10150  0B1C  160A  158A  27D1  120A  158A  	fcall	_clcd_print
 10151  0B21                     l5041:
 10152                           
 10153                           ;main.c: 385:                             break;
 10154  0B21  1683               	bsf	3,5	;RP0=1, select bank3
 10155  0B22  1703               	bsf	3,6	;RP1=1, select bank3
 10156  0B23  0190               	clrf	main@i_281^(0+384)
 10157  0B24  0191               	clrf	(main@i_281+1)^(0+384)
 10158  0B25                     l5043:
 10159  0B25  3001               	movlw	1
 10160  0B26  0211               	subwf	(main@i_281+1)^(0+384),w
 10161  0B27  30F4               	movlw	244
 10162  0B28  1903               	skipnz
 10163  0B29  0210               	subwf	main@i_281^(0+384),w
 10164  0B2A  1C03               	skipc
 10165  0B2B  2B2D               	goto	u6921
 10166  0B2C  2B2E               	goto	u6920
 10167  0B2D                     u6921:
 10168  0B2D  2B31               	goto	l5047
 10169  0B2E                     u6920:
 10170  0B2E  120A  118A  2BE6   	goto	l4859
 10171  0B31                     l5047:
 10172                           
 10173                           ;main.c: 386:                         }
 10174  0B31  0192               	clrf	main@j_282^(0+384)
 10175  0B32  0193               	clrf	(main@j_282+1)^(0+384)
 10176  0B33                     l5049:
 10177  0B33  3001               	movlw	1
 10178  0B34  0213               	subwf	(main@j_282+1)^(0+384),w
 10179  0B35  30F4               	movlw	244
 10180  0B36  1903               	skipnz
 10181  0B37  0212               	subwf	main@j_282^(0+384),w
 10182  0B38  1C03               	skipc
 10183  0B39  2B3B               	goto	u6931
 10184  0B3A  2B3C               	goto	u6930
 10185  0B3B                     u6931:
 10186  0B3B  2B3D               	goto	l5053
 10187  0B3C                     u6930:
 10188  0B3C  2B4C               	goto	l5055
 10189  0B3D                     l5053:
 10190  0B3D  3001               	movlw	1
 10191  0B3E  0792               	addwf	main@j_282^(0+384),f
 10192  0B3F  1803               	skipnc
 10193  0B40  0A93               	incf	(main@j_282+1)^(0+384),f
 10194  0B41  3000               	movlw	0
 10195  0B42  0793               	addwf	(main@j_282+1)^(0+384),f
 10196  0B43  3001               	movlw	1
 10197  0B44  0213               	subwf	(main@j_282+1)^(0+384),w
 10198  0B45  30F4               	movlw	244
 10199  0B46  1903               	skipnz
 10200  0B47  0212               	subwf	main@j_282^(0+384),w
 10201  0B48  1C03               	skipc
 10202  0B49  2B4B               	goto	u6941
 10203  0B4A  2B4C               	goto	u6940
 10204  0B4B                     u6941:
 10205  0B4B  2B3D               	goto	l5053
 10206  0B4C                     u6940:
 10207  0B4C                     l5055:
 10208  0B4C  3001               	movlw	1
 10209  0B4D  0790               	addwf	main@i_281^(0+384),f
 10210  0B4E  1803               	skipnc
 10211  0B4F  0A91               	incf	(main@i_281+1)^(0+384),f
 10212  0B50  3000               	movlw	0
 10213  0B51  0791               	addwf	(main@i_281+1)^(0+384),f
 10214  0B52  3001               	movlw	1
 10215  0B53  0211               	subwf	(main@i_281+1)^(0+384),w
 10216  0B54  30F4               	movlw	244
 10217  0B55  1903               	skipnz
 10218  0B56  0210               	subwf	main@i_281^(0+384),w
 10219  0B57  1C03               	skipc
 10220  0B58  2B5A               	goto	u6951
 10221  0B59  2B5B               	goto	u6950
 10222  0B5A                     u6951:
 10223  0B5A  2B31               	goto	l5047
 10224  0B5B                     u6950:
 10225  0B5B  2B2E               	goto	u6920
 10226  0B5C                     l294:
 10227                           
 10228                           ;main.c: 388:                         if(key_level == 6)
 10229  0B5C  2B2E               	goto	u6920
 10230  0B5D                     l5057:
 10231                           
 10232                           ;main.c: 391:                             if(time_count_decrement > 10)
 10233  0B5D  01A5               	clrf	main@time_count_decrement^(0+384)
 10234  0B5E  01A6               	clrf	(main@time_count_decrement+1)^(0+384)
 10235  0B5F  01A7               	clrf	main@log_select^(0+384)
 10236  0B60  01A8               	clrf	(main@log_select+1)^(0+384)
 10237  0B61                     l5059:
 10238                           
 10239                           ;main.c: 393:                                 time_count_decrement = 0;;main.c: 394:    
      +                                                       break;
 10240  0B61  3000               	movlw	0
 10241  0B62  1683               	bsf	3,5	;RP0=1, select bank3
 10242  0B63  1703               	bsf	3,6	;RP1=1, select bank3
 10243  0B64  0236               	subwf	(main@event_count+1)^(0+384),w
 10244  0B65  300B               	movlw	11
 10245  0B66  1903               	skipnz
 10246  0B67  0235               	subwf	main@event_count^(0+384),w
 10247  0B68  1C03               	skipc
 10248  0B69  2B6B               	goto	u6961
 10249  0B6A  2B6C               	goto	u6960
 10250  0B6B                     u6961:
 10251  0B6B  2B70               	goto	l5063
 10252  0B6C                     u6960:
 10253  0B6C                     l5061:
 10254                           
 10255                           ;main.c: 395:                             };main.c: 396:                         }
 10256  0B6C  300A               	movlw	10
 10257  0B6D  00B5               	movwf	main@event_count^(0+384)
 10258  0B6E  3000               	movlw	0
 10259  0B6F  00B6               	movwf	(main@event_count^(0+384)+1)
 10260  0B70                     l5063:
 10261                           
 10262                           ;main.c: 398:                         {
 10263  0B70  3001               	movlw	1
 10264  0B71  160A  158A  274E  120A  158A  	fcall	_read_matrix_keypad
 10265  0B76  1283               	bcf	3,5	;RP0=0, select bank0
 10266  0B77  1303               	bcf	3,6	;RP1=0, select bank0
 10267  0B78  00EB               	movwf	??_main
 10268  0B79  086B               	movf	??_main,w
 10269  0B7A  1683               	bsf	3,5	;RP0=1, select bank3
 10270  0B7B  1703               	bsf	3,6	;RP1=1, select bank3
 10271  0B7C  00BD               	movwf	main@key_state^(0+384)
 10272  0B7D                     l5065:
 10273                           
 10274                           ;main.c: 399:                             if(--log_select == -1)
 10275  0B7D  3000               	movlw	0
 10276  0B7E  160A  158A  274E  120A  158A  	fcall	_read_matrix_keypad
 10277  0B83  1283               	bcf	3,5	;RP0=0, select bank0
 10278  0B84  1303               	bcf	3,6	;RP1=0, select bank0
 10279  0B85  00EB               	movwf	??_main
 10280  0B86  086B               	movf	??_main,w
 10281  0B87  1683               	bsf	3,5	;RP0=1, select bank3
 10282  0B88  1703               	bsf	3,6	;RP1=1, select bank3
 10283  0B89  00AD               	movwf	main@key_level^(0+384)
 10284  0B8A                     l5067:
 10285                           
 10286                           ;main.c: 401:                             time_count_decrement = 0;
 10287  0B8A  3004               	movlw	4
 10288  0B8B  063D               	xorwf	main@key_state^(0+384),w
 10289  0B8C  1D03               	btfss	3,2
 10290  0B8D  2B8F               	goto	u6971
 10291  0B8E  2B90               	goto	u6970
 10292  0B8F                     u6971:
 10293  0B8F  2BC5               	goto	l5075
 10294  0B90                     u6970:
 10295  0B90                     l5069:
 10296                           
 10297                           ;main.c: 402: ;main.c: 403:                         }
 10298  0B90  0832               	movf	main@menu_flag^(0+384),w
 10299  0B91  0433               	iorwf	(main@menu_flag+1)^(0+384),w
 10300  0B92  1903               	btfsc	3,2
 10301  0B93  2B95               	goto	u6981
 10302  0B94  2B97               	goto	u6980
 10303  0B95                     u6981:
 10304  0B95  3001               	movlw	1
 10305  0B96  2B98               	goto	u6990
 10306  0B97                     u6980:
 10307  0B97  3000               	movlw	0
 10308  0B98                     u6990:
 10309  0B98  1283               	bcf	3,5	;RP0=0, select bank0
 10310  0B99  1303               	bcf	3,6	;RP1=0, select bank0
 10311  0B9A  00EB               	movwf	??_main
 10312  0B9B  01EC               	clrf	??_main+1
 10313  0B9C  086B               	movf	??_main,w
 10314  0B9D  1683               	bsf	3,5	;RP0=1, select bank3
 10315  0B9E  1703               	bsf	3,6	;RP1=1, select bank3
 10316  0B9F  00B2               	movwf	main@menu_flag^(0+384)
 10317  0BA0  1283               	bcf	3,5	;RP0=0, select bank0
 10318  0BA1  1303               	bcf	3,6	;RP1=0, select bank0
 10319  0BA2  086C               	movf	??_main+1,w
 10320  0BA3  1683               	bsf	3,5	;RP0=1, select bank3
 10321  0BA4  1703               	bsf	3,6	;RP1=1, select bank3
 10322  0BA5  00B3               	movwf	(main@menu_flag+1)^(0+384)
 10323  0BA6                     l5071:
 10324                           
 10325                           ;main.c: 404:                         if(key_state == 5)
 10326  0BA6  3028               	movlw	low (STR_1| (0+32768))
 10327  0BA7  00F6               	movwf	clcd_print@str
 10328  0BA8  3090               	movlw	high (STR_1| (0+32768))
 10329  0BA9  00F7               	movwf	clcd_print@str+1
 10330  0BAA  3080               	movlw	128
 10331  0BAB  1283               	bcf	3,5	;RP0=0, select bank0
 10332  0BAC  1303               	bcf	3,6	;RP1=0, select bank0
 10333  0BAD  00EB               	movwf	??_main
 10334  0BAE  086B               	movf	??_main,w
 10335  0BAF  00F8               	movwf	clcd_print@addr
 10336  0BB0  160A  158A  27D1  120A  158A  	fcall	_clcd_print
 10337  0BB5                     l5073:
 10338                           
 10339                           ;main.c: 405:                         {
 10340  0BB5  3028               	movlw	low (STR_1| (0+32768))
 10341  0BB6  00F6               	movwf	clcd_print@str
 10342  0BB7  3090               	movlw	high (STR_1| (0+32768))
 10343  0BB8  00F7               	movwf	clcd_print@str+1
 10344  0BB9  30C0               	movlw	192
 10345  0BBA  1283               	bcf	3,5	;RP0=0, select bank0
 10346  0BBB  1303               	bcf	3,6	;RP1=0, select bank0
 10347  0BBC  00EB               	movwf	??_main
 10348  0BBD  086B               	movf	??_main,w
 10349  0BBE  00F8               	movwf	clcd_print@addr
 10350  0BBF  160A  158A  27D1  120A  158A  	fcall	_clcd_print
 10351                           
 10352                           ;main.c: 406:                             if(++log_select == event_count)
 10353  0BC4  2B2E               	goto	u6920
 10354  0BC5                     l5075:
 10355                           
 10356                           ;main.c: 409: 
 10357  0BC5  3006               	movlw	6
 10358  0BC6  062D               	xorwf	main@key_level^(0+384),w
 10359  0BC7  1D03               	btfss	3,2
 10360  0BC8  2BCA               	goto	u7001
 10361  0BC9  2BCB               	goto	u7000
 10362  0BCA                     u7001:
 10363  0BCA  2BDD               	goto	l5081
 10364  0BCB                     u7000:
 10365  0BCB                     l5077:
 10366                           
 10367                           ;main.c: 410:                         unsigned char log_display[17];;main.c: 411:       
      +                                            for(char i = 0; i < 16; i++)
 10368  0BCB  3001               	movlw	1
 10369  0BCC  07A5               	addwf	main@time_count_decrement^(0+384),f
 10370  0BCD  1803               	skipnc
 10371  0BCE  0AA6               	incf	(main@time_count_decrement+1)^(0+384),f
 10372  0BCF  3000               	movlw	0
 10373  0BD0  07A6               	addwf	(main@time_count_decrement+1)^(0+384),f
 10374                           
 10375                           ;main.c: 412:                         {
 10376  0BD1  3000               	movlw	0
 10377  0BD2  0226               	subwf	(main@time_count_decrement+1)^(0+384),w
 10378  0BD3  300B               	movlw	11
 10379  0BD4  1903               	skipnz
 10380  0BD5  0225               	subwf	main@time_count_decrement^(0+384),w
 10381  0BD6  1C03               	skipc
 10382  0BD7  2BD9               	goto	u7011
 10383  0BD8  2BDA               	goto	u7010
 10384  0BD9                     u7011:
 10385  0BD9  2BF7               	goto	l5089
 10386  0BDA                     u7010:
 10387  0BDA                     l5079:
 10388                           
 10389                           ;main.c: 413:                             log_display[i] = read_24c02(addr[log_select] +
      +                           i);;main.c: 414:                         }
 10390  0BDA  01A5               	clrf	main@time_count_decrement^(0+384)
 10391  0BDB  01A6               	clrf	(main@time_count_decrement+1)^(0+384)
 10392                           
 10393                           ;main.c: 415:                         log_display[16] = '\0';
 10394  0BDC  2B2E               	goto	u6920
 10395  0BDD                     l5081:
 10396  0BDD  0825               	movf	main@time_count_decrement^(0+384),w
 10397  0BDE  0426               	iorwf	(main@time_count_decrement+1)^(0+384),w
 10398  0BDF  1903               	btfsc	3,2
 10399  0BE0  2BE2               	goto	u7021
 10400  0BE1  2BE3               	goto	u7020
 10401  0BE2                     u7021:
 10402  0BE2  2BF7               	goto	l5089
 10403  0BE3                     u7020:
 10404  0BE3                     l5083:
 10405                           
 10406                           ;main.c: 419:                 };main.c: 420: 
 10407  0BE3  3001               	movlw	1
 10408  0BE4  02A7               	subwf	main@log_select^(0+384),f
 10409  0BE5  3000               	movlw	0
 10410  0BE6  1C03               	skipc
 10411  0BE7  03A8               	decf	(main@log_select+1)^(0+384),f
 10412  0BE8  02A8               	subwf	(main@log_select+1)^(0+384),f
 10413  0BE9  0A27               	incf	main@log_select^(0+384),w
 10414  0BEA  1D03               	skipz
 10415  0BEB  2BF0               	goto	u7031
 10416  0BEC  0A28               	incf	(main@log_select+1)^(0+384),w
 10417  0BED  1D03               	btfss	3,2
 10418  0BEE  2BF0               	goto	u7031
 10419  0BEF  2BF1               	goto	u7030
 10420  0BF0                     u7031:
 10421  0BF0  2BF5               	goto	l5087
 10422  0BF1                     u7030:
 10423  0BF1                     l5085:
 10424                           
 10425                           ;main.c: 421:                 else if(menu_select == 1)
 10426  0BF1  0836               	movf	(main@event_count+1)^(0+384),w
 10427  0BF2  00A8               	movwf	(main@log_select+1)^(0+384)
 10428  0BF3  0835               	movf	main@event_count^(0+384),w
 10429  0BF4  00A7               	movwf	main@log_select^(0+384)
 10430  0BF5                     l5087:
 10431                           
 10432                           ;main.c: 422:                 {
 10433  0BF5  01A5               	clrf	main@time_count_decrement^(0+384)
 10434  0BF6  01A6               	clrf	(main@time_count_decrement+1)^(0+384)
 10435  0BF7                     l5089:
 10436                           
 10437                           ;main.c: 425: 
 10438  0BF7  3005               	movlw	5
 10439  0BF8  063D               	xorwf	main@key_state^(0+384),w
 10440  0BF9  1D03               	btfss	3,2
 10441  0BFA  2BFC               	goto	u7041
 10442  0BFB  2BFD               	goto	u7040
 10443  0BFC                     u7041:
 10444  0BFC  2C0F               	goto	l306
 10445  0BFD                     u7040:
 10446  0BFD                     l5091:
 10447                           
 10448                           ;main.c: 426:                     clcd_print(gear[gear_idx], (0xC0 + 10));;main.c: 427: 
 10449  0BFD  3001               	movlw	1
 10450  0BFE  07A7               	addwf	main@log_select^(0+384),f
 10451  0BFF  1803               	skipnc
 10452  0C00  0AA8               	incf	(main@log_select+1)^(0+384),f
 10453  0C01  3000               	movlw	0
 10454  0C02  07A8               	addwf	(main@log_select+1)^(0+384),f
 10455  0C03  0836               	movf	(main@event_count+1)^(0+384),w
 10456  0C04  0628               	xorwf	(main@log_select+1)^(0+384),w
 10457  0C05  1D03               	skipz
 10458  0C06  2C09               	goto	u7055
 10459  0C07  0835               	movf	main@event_count^(0+384),w
 10460  0C08  0627               	xorwf	main@log_select^(0+384),w
 10461  0C09                     u7055:
 10462  0C09  1D03               	skipz
 10463  0C0A  2C0C               	goto	u7051
 10464  0C0B  2C0D               	goto	u7050
 10465  0C0C                     u7051:
 10466  0C0C  2C0F               	goto	l306
 10467  0C0D                     u7050:
 10468  0C0D                     l5093:
 10469                           
 10470                           ;main.c: 428:                     display(adc_reg_val_speed);
 10471  0C0D  01A7               	clrf	main@log_select^(0+384)
 10472  0C0E  01A8               	clrf	(main@log_select+1)^(0+384)
 10473  0C0F                     l306:	
 10474                           ;main.c: 429: 
 10475                           
 10476                           
 10477                           ;main.c: 431:                     while(1);main.c: 432:                     {
 10478  0C0F  01B0               	clrf	main@i_288^(0+384)
 10479  0C10                     l5095:
 10480  0C10  3010               	movlw	16
 10481  0C11  0230               	subwf	main@i_288^(0+384),w
 10482  0C12  1C03               	skipc
 10483  0C13  2C15               	goto	u7061
 10484  0C14  2C16               	goto	u7060
 10485  0C15                     u7061:
 10486  0C15  2C17               	goto	l5099
 10487  0C16                     u7060:
 10488  0C16  2C3C               	goto	l5105
 10489  0C17                     l5099:
 10490                           
 10491                           ;main.c: 433:                         key_state = read_matrix_keypad(1);;main.c: 434:   
      +                                                key_level = read_matrix_keypad(0);
 10492  0C17  0827               	movf	main@log_select^(0+384),w
 10493  0C18  1283               	bcf	3,5	;RP0=0, select bank0
 10494  0C19  1303               	bcf	3,6	;RP1=0, select bank0
 10495  0C1A  00EB               	movwf	??_main
 10496  0C1B  076B               	addwf	??_main,w
 10497  0C1C  3EC4               	addlw	(low (main@addr| 0))& (0+255)
 10498  0C1D  0084               	movwf	4
 10499  0C1E  1683               	bsf	3,5	;RP0=1, select bank3
 10500  0C1F  1703               	bsf	3,6	;RP1=1, select bank3
 10501  0C20  0830               	movf	main@i_288^(0+384),w
 10502  0C21  1383               	bcf	3,7	;select IRP bank1
 10503  0C22  0700               	addwf	0,w
 10504  0C23  160A  158A  2777  120A  158A  	fcall	_read_24c02
 10505  0C28  1283               	bcf	3,5	;RP0=0, select bank0
 10506  0C29  1303               	bcf	3,6	;RP1=0, select bank0
 10507  0C2A  00EC               	movwf	??_main+1
 10508  0C2B  1683               	bsf	3,5	;RP0=1, select bank3
 10509  0C2C  1703               	bsf	3,6	;RP1=1, select bank3
 10510  0C2D  0830               	movf	main@i_288^(0+384),w
 10511  0C2E  3EA0               	addlw	(low (main@log_display| 0))& (0+255)
 10512  0C2F  0084               	movwf	4
 10513  0C30  1283               	bcf	3,5	;RP0=0, select bank0
 10514  0C31  1303               	bcf	3,6	;RP1=0, select bank0
 10515  0C32  086C               	movf	??_main+1,w
 10516  0C33  1383               	bcf	3,7	;select IRP bank1
 10517  0C34  0080               	movwf	0
 10518  0C35                     l5101:
 10519                           
 10520                           ;main.c: 435: 
 10521  0C35  3001               	movlw	1
 10522  0C36  00EB               	movwf	??_main
 10523  0C37  086B               	movf	??_main,w
 10524  0C38  1683               	bsf	3,5	;RP0=1, select bank3
 10525  0C39  1703               	bsf	3,6	;RP1=1, select bank3
 10526  0C3A  07B0               	addwf	main@i_288^(0+384),f
 10527  0C3B  2C10               	goto	l5095
 10528  0C3C                     l5105:
 10529                           
 10530                           ;main.c: 436:                         if(key_state == 5)
 10531  0C3C  1683               	bsf	3,5	;RP0=1, select bank1
 10532  0C3D  1303               	bcf	3,6	;RP1=0, select bank1
 10533  0C3E  01B0               	clrf	(main@log_display^(0+128)+16)
 10534  0C3F                     l5107:
 10535                           
 10536                           ;main.c: 437:                         {
 10537  0C3F  3049               	movlw	low (STR_43| (0+32768))
 10538  0C40  00F6               	movwf	clcd_print@str
 10539  0C41  3091               	movlw	high (STR_43| (0+32768))
 10540  0C42  00F7               	movwf	clcd_print@str+1
 10541  0C43  3080               	movlw	128
 10542  0C44  1283               	bcf	3,5	;RP0=0, select bank0
 10543  0C45  1303               	bcf	3,6	;RP1=0, select bank0
 10544  0C46  00EB               	movwf	??_main
 10545  0C47  086B               	movf	??_main,w
 10546  0C48  00F8               	movwf	clcd_print@addr
 10547  0C49  160A  158A  27D1  120A  158A  	fcall	_clcd_print
 10548  0C4E                     l5109:
 10549                           
 10550                           ;main.c: 438:                             if(--field_select == -1)
 10551  0C4E  30A0               	movlw	(low (main@log_display| 0))& (0+255)
 10552  0C4F  00F6               	movwf	clcd_print@str
 10553  0C50  3000               	movlw	0
 10554  0C51  00F7               	movwf	clcd_print@str+1
 10555  0C52  30C0               	movlw	192
 10556  0C53  1283               	bcf	3,5	;RP0=0, select bank0
 10557  0C54  1303               	bcf	3,6	;RP1=0, select bank0
 10558  0C55  00EB               	movwf	??_main
 10559  0C56  086B               	movf	??_main,w
 10560  0C57  00F8               	movwf	clcd_print@addr
 10561  0C58  160A  158A  27D1  120A  158A  	fcall	_clcd_print
 10562  0C5D  2B61               	goto	l5059
 10563  0C5E                     l5111:
 10564  0C5E  0339               	decf	main@menu_select^(0+384),w
 10565  0C5F  043A               	iorwf	(main@menu_select+1)^(0+384),w
 10566  0C60  1D03               	btfss	3,2
 10567  0C61  2C63               	goto	u7071
 10568  0C62  2C64               	goto	u7070
 10569  0C63                     u7071:
 10570  0C63  2D9F               	goto	l5167
 10571  0C64                     u7070:
 10572  0C64                     l5113:
 10573                           
 10574                           ;main.c: 443: ;main.c: 444:                         if(key_level == 6)
 10575  0C64  3038               	movlw	low (STR_9| (0+32768))
 10576  0C65  00F6               	movwf	clcd_print@str
 10577  0C66  3091               	movlw	high (STR_9| (0+32768))
 10578  0C67  00F7               	movwf	clcd_print@str+1
 10579  0C68  3080               	movlw	128
 10580  0C69  1283               	bcf	3,5	;RP0=0, select bank0
 10581  0C6A  1303               	bcf	3,6	;RP1=0, select bank0
 10582  0C6B  00EB               	movwf	??_main
 10583  0C6C  086B               	movf	??_main,w
 10584  0C6D  00F8               	movwf	clcd_print@addr
 10585  0C6E  160A  158A  27D1  120A  158A  	fcall	_clcd_print
 10586                           
 10587                           ;main.c: 445:                         {
 10588  0C73  3028               	movlw	low (STR_1| (0+32768))
 10589  0C74  00F6               	movwf	clcd_print@str
 10590  0C75  3090               	movlw	high (STR_1| (0+32768))
 10591  0C76  00F7               	movwf	clcd_print@str+1
 10592  0C77  30C0               	movlw	192
 10593  0C78  1283               	bcf	3,5	;RP0=0, select bank0
 10594  0C79  1303               	bcf	3,6	;RP1=0, select bank0
 10595  0C7A  00EB               	movwf	??_main
 10596  0C7B  086B               	movf	??_main,w
 10597  0C7C  00F8               	movwf	clcd_print@addr
 10598  0C7D  160A  158A  27D1  120A  158A  	fcall	_clcd_print
 10599                           
 10600                           ;main.c: 447:                             if(time_count_increment > 100)
 10601  0C82  1683               	bsf	3,5	;RP0=1, select bank3
 10602  0C83  1703               	bsf	3,6	;RP1=1, select bank3
 10603  0C84  0837               	movf	main@gear_idx^(0+384),w
 10604  0C85  1283               	bcf	3,5	;RP0=0, select bank0
 10605  0C86  1303               	bcf	3,6	;RP1=0, select bank0
 10606  0C87  00EB               	movwf	??_main
 10607  0C88  076B               	addwf	??_main,w
 10608  0C89  3ED8               	addlw	(low (main@gear| 0))& (0+255)
 10609  0C8A  0084               	movwf	4
 10610  0C8B  1383               	bcf	3,7	;select IRP bank1
 10611  0C8C  0800               	movf	0,w
 10612  0C8D  00F6               	movwf	clcd_print@str
 10613  0C8E  0A84               	incf	4,f
 10614  0C8F  0800               	movf	0,w
 10615  0C90  0384               	decf	4,f
 10616  0C91  00F7               	movwf	clcd_print@str+1
 10617  0C92  30CA               	movlw	202
 10618  0C93  00ED               	movwf	??_main+2
 10619  0C94  086D               	movf	??_main+2,w
 10620  0C95  00F8               	movwf	clcd_print@addr
 10621  0C96  160A  158A  27D1  120A  158A  	fcall	_clcd_print
 10622                           
 10623                           ;main.c: 449:                                 menu_flag = 0;
 10624  0C9B  1683               	bsf	3,5	;RP0=1, select bank1
 10625  0C9C  1303               	bcf	3,6	;RP1=0, select bank1
 10626  0C9D  0869               	movf	(main@adc_reg_val_speed+1)^(0+128),w
 10627  0C9E  1283               	bcf	3,5	;RP0=0, select bank0
 10628  0C9F  1303               	bcf	3,6	;RP1=0, select bank0
 10629  0CA0  00A5               	movwf	display@adc_reg_val_speed+1
 10630  0CA1  1683               	bsf	3,5	;RP0=1, select bank1
 10631  0CA2  1303               	bcf	3,6	;RP1=0, select bank1
 10632  0CA3  0868               	movf	main@adc_reg_val_speed^(0+128),w
 10633  0CA4  1283               	bcf	3,5	;RP0=0, select bank0
 10634  0CA5  1303               	bcf	3,6	;RP1=0, select bank0
 10635  0CA6  00A4               	movwf	display@adc_reg_val_speed
 10636  0CA7  160A  118A  225C  120A  158A  	fcall	_display
 10637  0CAC                     l5115:
 10638                           
 10639                           ;main.c: 451:                             }
 10640  0CAC  3002               	movlw	2
 10641  0CAD  1683               	bsf	3,5	;RP0=1, select bank3
 10642  0CAE  1703               	bsf	3,6	;RP1=1, select bank3
 10643  0CAF  00AE               	movwf	main@field_select^(0+384)
 10644  0CB0  3000               	movlw	0
 10645  0CB1  00AF               	movwf	(main@field_select^(0+384)+1)
 10646  0CB2                     l5117:
 10647  0CB2  01A1               	clrf	main@time_count_increment_293^(0+384)
 10648  0CB3  01A2               	clrf	(main@time_count_increment_293+1)^(0+384)
 10649  0CB4                     l5119:
 10650                           
 10651                           ;main.c: 453:                         else if(time_count_increment != 0);main.c: 454:   
      +                                                {
 10652  0CB4  3001               	movlw	1
 10653  0CB5  160A  158A  274E  120A  158A  	fcall	_read_matrix_keypad
 10654  0CBA  1283               	bcf	3,5	;RP0=0, select bank0
 10655  0CBB  1303               	bcf	3,6	;RP1=0, select bank0
 10656  0CBC  00EB               	movwf	??_main
 10657  0CBD  086B               	movf	??_main,w
 10658  0CBE  1683               	bsf	3,5	;RP0=1, select bank3
 10659  0CBF  1703               	bsf	3,6	;RP1=1, select bank3
 10660  0CC0  00BD               	movwf	main@key_state^(0+384)
 10661  0CC1                     l5121:
 10662                           
 10663                           ;main.c: 455:                             if(++(clock_reg[field_select]) == 100)
 10664  0CC1  3000               	movlw	0
 10665  0CC2  160A  158A  274E  120A  158A  	fcall	_read_matrix_keypad
 10666  0CC7  1283               	bcf	3,5	;RP0=0, select bank0
 10667  0CC8  1303               	bcf	3,6	;RP1=0, select bank0
 10668  0CC9  00EB               	movwf	??_main
 10669  0CCA  086B               	movf	??_main,w
 10670  0CCB  1683               	bsf	3,5	;RP0=1, select bank3
 10671  0CCC  1703               	bsf	3,6	;RP1=1, select bank3
 10672  0CCD  00AD               	movwf	main@key_level^(0+384)
 10673  0CCE                     l5123:
 10674                           
 10675                           ;main.c: 457:                                 clock_reg[field_select] = 0;
 10676  0CCE  3005               	movlw	5
 10677  0CCF  063D               	xorwf	main@key_state^(0+384),w
 10678  0CD0  1D03               	btfss	3,2
 10679  0CD1  2CD3               	goto	u7081
 10680  0CD2  2CD4               	goto	u7080
 10681  0CD3                     u7081:
 10682  0CD3  2CE6               	goto	l5129
 10683  0CD4                     u7080:
 10684  0CD4                     l5125:
 10685                           
 10686                           ;main.c: 458:                             };main.c: 459: 
 10687  0CD4  30FF               	movlw	255
 10688  0CD5  07AE               	addwf	main@field_select^(0+384),f
 10689  0CD6  1803               	skipnc
 10690  0CD7  0AAF               	incf	(main@field_select+1)^(0+384),f
 10691  0CD8  30FF               	movlw	255
 10692  0CD9  07AF               	addwf	(main@field_select+1)^(0+384),f
 10693  0CDA  0A2E               	incf	main@field_select^(0+384),w
 10694  0CDB  1D03               	skipz
 10695  0CDC  2CE1               	goto	u7091
 10696  0CDD  0A2F               	incf	(main@field_select+1)^(0+384),w
 10697  0CDE  1D03               	btfss	3,2
 10698  0CDF  2CE1               	goto	u7091
 10699  0CE0  2CE2               	goto	u7090
 10700  0CE1                     u7091:
 10701  0CE1  2CE6               	goto	l5129
 10702  0CE2                     u7090:
 10703  0CE2                     l5127:
 10704                           
 10705                           ;main.c: 460:                             time_count_increment = 0;
 10706  0CE2  3002               	movlw	2
 10707  0CE3  00AE               	movwf	main@field_select^(0+384)
 10708  0CE4  3000               	movlw	0
 10709  0CE5  00AF               	movwf	(main@field_select^(0+384)+1)
 10710  0CE6                     l5129:
 10711                           
 10712                           ;main.c: 465: 
 10713  0CE6  3006               	movlw	6
 10714  0CE7  062D               	xorwf	main@key_level^(0+384),w
 10715  0CE8  1D03               	btfss	3,2
 10716  0CE9  2CEB               	goto	u7101
 10717  0CEA  2CEC               	goto	u7100
 10718  0CEB                     u7101:
 10719  0CEB  2D00               	goto	l5137
 10720  0CEC                     u7100:
 10721  0CEC                     l5131:
 10722                           
 10723                           ;main.c: 466:                         };main.c: 467: 
 10724  0CEC  3001               	movlw	1
 10725  0CED  07A1               	addwf	main@time_count_increment_293^(0+384),f
 10726  0CEE  1803               	skipnc
 10727  0CEF  0AA2               	incf	(main@time_count_increment_293+1)^(0+384),f
 10728  0CF0  3000               	movlw	0
 10729  0CF1  07A2               	addwf	(main@time_count_increment_293+1)^(0+384),f
 10730  0CF2                     l5133:
 10731                           
 10732                           ;main.c: 468:                         if(time_count_isr < 10000)
 10733  0CF2  0822               	movf	(main@time_count_increment_293+1)^(0+384),w
 10734  0CF3  3A80               	xorlw	128
 10735  0CF4  00FF               	movwf	btemp+1
 10736  0CF5  3080               	movlw	128
 10737  0CF6  027F               	subwf	btemp+1,w
 10738  0CF7  1D03               	skipz
 10739  0CF8  2CFB               	goto	u7115
 10740  0CF9  3065               	movlw	101
 10741  0CFA  0221               	subwf	main@time_count_increment_293^(0+384),w
 10742  0CFB                     u7115:
 10743  0CFB  1C03               	skipc
 10744  0CFC  2CFE               	goto	u7111
 10745  0CFD  2CFF               	goto	u7110
 10746  0CFE                     u7111:
 10747  0CFE  2D4C               	goto	l5151
 10748  0CFF                     u7110:
 10749  0CFF  28DA               	goto	l4963
 10750  0D00                     l5137:
 10751  0D00  0821               	movf	main@time_count_increment_293^(0+384),w
 10752  0D01  0422               	iorwf	(main@time_count_increment_293+1)^(0+384),w
 10753  0D02  1903               	btfsc	3,2
 10754  0D03  2D05               	goto	u7121
 10755  0D04  2D06               	goto	u7120
 10756  0D05                     u7121:
 10757  0D05  2D4C               	goto	l5151
 10758  0D06                     u7120:
 10759  0D06                     l5139:
 10760                           
 10761                           ;main.c: 475:                                    break;;main.c: 476:                    
      +                                       }
 10762  0D06  3001               	movlw	1
 10763  0D07  1283               	bcf	3,5	;RP0=0, select bank0
 10764  0D08  1303               	bcf	3,6	;RP1=0, select bank0
 10765  0D09  00EB               	movwf	??_main
 10766  0D0A  1683               	bsf	3,5	;RP0=1, select bank3
 10767  0D0B  1703               	bsf	3,6	;RP1=1, select bank3
 10768  0D0C  082E               	movf	main@field_select^(0+384),w
 10769  0D0D  3EAA               	addlw	(low (main@clock_reg| (0+256)))& (0+255)
 10770  0D0E  0084               	movwf	4
 10771  0D0F  1283               	bcf	3,5	;RP0=0, select bank0
 10772  0D10  1303               	bcf	3,6	;RP1=0, select bank0
 10773  0D11  086B               	movf	??_main,w
 10774  0D12  1783               	bsf	3,7	;select IRP bank3
 10775  0D13  0780               	addwf	0,f
 10776  0D14  3064               	movlw	100
 10777  0D15  0600               	xorwf	0,w
 10778  0D16  1D03               	btfss	3,2
 10779  0D17  2D19               	goto	u7131
 10780  0D18  2D1A               	goto	u7130
 10781  0D19                     u7131:
 10782  0D19  2D20               	goto	l5143
 10783  0D1A                     u7130:
 10784  0D1A                     l5141:
 10785                           
 10786                           ;main.c: 477: ;main.c: 478:                                 case 1:
 10787  0D1A  1683               	bsf	3,5	;RP0=1, select bank3
 10788  0D1B  1703               	bsf	3,6	;RP1=1, select bank3
 10789  0D1C  082E               	movf	main@field_select^(0+384),w
 10790  0D1D  3EAA               	addlw	(low (main@clock_reg| (0+256)))& (0+255)
 10791  0D1E  0084               	movwf	4
 10792  0D1F  0180               	clrf	0
 10793  0D20                     l5143:
 10794                           
 10795                           ;main.c: 481:                                    break;
 10796  0D20  1683               	bsf	3,5	;RP0=1, select bank3
 10797  0D21  1703               	bsf	3,6	;RP1=1, select bank3
 10798  0D22  01A1               	clrf	main@time_count_increment_293^(0+384)
 10799  0D23  01A2               	clrf	(main@time_count_increment_293+1)^(0+384)
 10800  0D24                     l5145:
 10801                           
 10802                           ;main.c: 483: 
 10803  0D24  082A               	movf	main@clock_reg^(0+384),w
 10804  0D25  1283               	bcf	3,5	;RP0=0, select bank0
 10805  0D26  1303               	bcf	3,6	;RP1=0, select bank0
 10806  0D27  00EB               	movwf	??_main
 10807  0D28  086B               	movf	??_main,w
 10808  0D29  00F3               	movwf	write_ds1307@data
 10809  0D2A  3002               	movlw	2
 10810  0D2B  160A  158A  2615  120A  158A  	fcall	_write_ds1307
 10811  0D30                     l5147:
 10812                           
 10813                           ;main.c: 484:                                 case 2:
 10814  0D30  1683               	bsf	3,5	;RP0=1, select bank3
 10815  0D31  1703               	bsf	3,6	;RP1=1, select bank3
 10816  0D32  082B               	movf	(main@clock_reg^(0+384)+1),w
 10817  0D33  1283               	bcf	3,5	;RP0=0, select bank0
 10818  0D34  1303               	bcf	3,6	;RP1=0, select bank0
 10819  0D35  00EB               	movwf	??_main
 10820  0D36  086B               	movf	??_main,w
 10821  0D37  00F3               	movwf	write_ds1307@data
 10822  0D38  3001               	movlw	1
 10823  0D39  160A  158A  2615  120A  158A  	fcall	_write_ds1307
 10824  0D3E                     l5149:
 10825                           
 10826                           ;main.c: 485:                                 {
 10827  0D3E  1683               	bsf	3,5	;RP0=1, select bank3
 10828  0D3F  1703               	bsf	3,6	;RP1=1, select bank3
 10829  0D40  082C               	movf	(main@clock_reg^(0+384)+2),w
 10830  0D41  1283               	bcf	3,5	;RP0=0, select bank0
 10831  0D42  1303               	bcf	3,6	;RP1=0, select bank0
 10832  0D43  00EB               	movwf	??_main
 10833  0D44  086B               	movf	??_main,w
 10834  0D45  00F3               	movwf	write_ds1307@data
 10835  0D46  3000               	movlw	0
 10836  0D47  160A  158A  2615  120A  158A  	fcall	_write_ds1307
 10837  0D4C                     l5151:
 10838                           
 10839                           ;main.c: 489:                             }
 10840  0D4C  3027               	movlw	39
 10841  0D4D  027B               	subwf	_time_count_isr+1,w
 10842  0D4E  3010               	movlw	16
 10843  0D4F  1903               	skipnz
 10844  0D50  027A               	subwf	_time_count_isr,w
 10845  0D51  1803               	skipnc
 10846  0D52  2D54               	goto	u7141
 10847  0D53  2D55               	goto	u7140
 10848  0D54                     u7141:
 10849  0D54  2D98               	goto	l5165
 10850  0D55                     u7140:
 10851  0D55  2D86               	goto	l5163
 10852  0D56                     l5155:
 10853                           
 10854                           ;main.c: 494:                             display_time(clock_reg);;main.c: 495:         
      +                                          }
 10855  0D56  30BC               	movlw	low (STR_46| (0+32768))
 10856  0D57  00F6               	movwf	clcd_print@str
 10857  0D58  3091               	movlw	high (STR_46| (0+32768))
 10858  0D59  00F7               	movwf	clcd_print@str+1
 10859  0D5A  30C0               	movlw	192
 10860  0D5B  1283               	bcf	3,5	;RP0=0, select bank0
 10861  0D5C  1303               	bcf	3,6	;RP1=0, select bank0
 10862  0D5D  00EB               	movwf	??_main
 10863  0D5E  086B               	movf	??_main,w
 10864  0D5F  00F8               	movwf	clcd_print@addr
 10865  0D60  160A  158A  27D1  120A  158A  	fcall	_clcd_print
 10866                           
 10867                           ;main.c: 496: 
 10868  0D65  2CB4               	goto	l5119
 10869  0D66                     l5157:
 10870                           
 10871                           ;main.c: 500: ;main.c: 501: 
 10872  0D66  30BC               	movlw	low (STR_46| (0+32768))
 10873  0D67  00F6               	movwf	clcd_print@str
 10874  0D68  3091               	movlw	high (STR_46| (0+32768))
 10875  0D69  00F7               	movwf	clcd_print@str+1
 10876  0D6A  30C3               	movlw	195
 10877  0D6B  1283               	bcf	3,5	;RP0=0, select bank0
 10878  0D6C  1303               	bcf	3,6	;RP1=0, select bank0
 10879  0D6D  00EB               	movwf	??_main
 10880  0D6E  086B               	movf	??_main,w
 10881  0D6F  00F8               	movwf	clcd_print@addr
 10882  0D70  160A  158A  27D1  120A  158A  	fcall	_clcd_print
 10883                           
 10884                           ;main.c: 502:                 else if(menu_select == 2)
 10885  0D75  2CB4               	goto	l5119
 10886  0D76                     l5159:
 10887                           
 10888                           ;main.c: 506:                     {;main.c: 507:                        clcd_print("Ente
      +                          r new Passwd", (0x80 + 0));
 10889  0D76  30BC               	movlw	low (STR_46| (0+32768))
 10890  0D77  00F6               	movwf	clcd_print@str
 10891  0D78  3091               	movlw	high (STR_46| (0+32768))
 10892  0D79  00F7               	movwf	clcd_print@str+1
 10893  0D7A  30C6               	movlw	198
 10894  0D7B  1283               	bcf	3,5	;RP0=0, select bank0
 10895  0D7C  1303               	bcf	3,6	;RP1=0, select bank0
 10896  0D7D  00EB               	movwf	??_main
 10897  0D7E  086B               	movf	??_main,w
 10898  0D7F  00F8               	movwf	clcd_print@addr
 10899  0D80  160A  158A  27D1  120A  158A  	fcall	_clcd_print
 10900                           
 10901                           ;main.c: 508:                        clcd_print("                ", (0xC0 + 0));
 10902  0D85  2CB4               	goto	l5119
 10903  0D86                     l5163:
 10904                           
 10905                           ; Switch on 2 bytes has been partitioned into a top level switch of size 1, and 1 sub-sw
      +                          itches
 10906                           ; Switch size 1, requested type "simple"
 10907                           ; Number of cases is 1, Range of values is 0 to 0
 10908                           ; switch strategies available:
 10909                           ; Name         Instructions Cycles
 10910                           ; simple_byte            4     3 (average)
 10911                           ; direct_byte           11     8 (fixed)
 10912                           ; jumptable            260     6 (fixed)
 10913                           ;	Chosen strategy is simple_byte
 10914  0D86  1683               	bsf	3,5	;RP0=1, select bank3
 10915  0D87  1703               	bsf	3,6	;RP1=1, select bank3
 10916  0D88  082F               	movf	(main@field_select+1)^(0+384),w
 10917  0D89  3A00               	xorlw	0	; case 0
 10918  0D8A  1903               	skipnz
 10919  0D8B  2D8D               	goto	l5369
 10920  0D8C  2CB4               	goto	l5119
 10921  0D8D                     l5369:
 10922                           
 10923                           ; Switch size 1, requested type "simple"
 10924                           ; Number of cases is 3, Range of values is 0 to 2
 10925                           ; switch strategies available:
 10926                           ; Name         Instructions Cycles
 10927                           ; simple_byte           10     6 (average)
 10928                           ; direct_byte           17     8 (fixed)
 10929                           ; jumptable            260     6 (fixed)
 10930                           ;	Chosen strategy is simple_byte
 10931  0D8D  082E               	movf	main@field_select^(0+384),w
 10932  0D8E  3A00               	xorlw	0	; case 0
 10933  0D8F  1903               	skipnz
 10934  0D90  2D56               	goto	l5155
 10935  0D91  3A01               	xorlw	1	; case 1
 10936  0D92  1903               	skipnz
 10937  0D93  2D66               	goto	l5157
 10938  0D94  3A03               	xorlw	3	; case 2
 10939  0D95  1903               	skipnz
 10940  0D96  2D76               	goto	l5159
 10941  0D97  2CB4               	goto	l5119
 10942  0D98                     l5165:
 10943                           
 10944                           ;main.c: 514:                             key_state = read_matrix_keypad(1);;main.c: 515
      +                          : 
 10945  0D98  30AA               	movlw	(low (main@clock_reg| (0+256)))& (0+255)
 10946  0D99  160A  118A  24B5  120A  158A  	fcall	_display_time
 10947  0D9E  2CB4               	goto	l5119
 10948  0D9F                     l5167:
 10949  0D9F  3002               	movlw	2
 10950  0DA0  0639               	xorwf	main@menu_select^(0+384),w
 10951  0DA1  043A               	iorwf	(main@menu_select+1)^(0+384),w
 10952  0DA2  1D03               	btfss	3,2
 10953  0DA3  2DA5               	goto	u7151
 10954  0DA4  2DA6               	goto	u7150
 10955  0DA5                     u7151:
 10956  0DA5  2F25               	goto	l5247
 10957  0DA6                     u7150:
 10958  0DA6                     l5169:
 10959                           
 10960                           ;main.c: 524:                                 count++;;main.c: 525:                     
      +                                      continue;
 10961  0DA6  305A               	movlw	low (STR_49| (0+32768))
 10962  0DA7  00F6               	movwf	clcd_print@str
 10963  0DA8  3091               	movlw	high (STR_49| (0+32768))
 10964  0DA9  00F7               	movwf	clcd_print@str+1
 10965  0DAA  3080               	movlw	128
 10966  0DAB  1283               	bcf	3,5	;RP0=0, select bank0
 10967  0DAC  1303               	bcf	3,6	;RP1=0, select bank0
 10968  0DAD  00EB               	movwf	??_main
 10969  0DAE  086B               	movf	??_main,w
 10970  0DAF  00F8               	movwf	clcd_print@addr
 10971  0DB0  160A  158A  27D1  120A  158A  	fcall	_clcd_print
 10972                           
 10973                           ;main.c: 526:                             }
 10974  0DB5  160A  118A  253A  120A  158A  	fcall	_check_password
 10975  0DBA  1283               	bcf	3,5	;RP0=0, select bank0
 10976  0DBB  1303               	bcf	3,6	;RP1=0, select bank0
 10977  0DBC  0320               	decf	?_check_password,w
 10978  0DBD  0421               	iorwf	?_check_password+1,w
 10979  0DBE  1D03               	btfss	3,2
 10980  0DBF  2DC1               	goto	u7161
 10981  0DC0  2DC2               	goto	u7160
 10982  0DC1                     u7161:
 10983  0DC1  2ED0               	goto	l5229
 10984  0DC2                     u7160:
 10985  0DC2                     l5171:
 10986                           
 10987                           ;main.c: 527:                             if(key_state == 6);main.c: 528:               
      +                                        {
 10988  0DC2  306B               	movlw	low (STR_50| (0+32768))
 10989  0DC3  00F6               	movwf	clcd_print@str
 10990  0DC4  3091               	movlw	high (STR_50| (0+32768))
 10991  0DC5  00F7               	movwf	clcd_print@str+1
 10992  0DC6  3080               	movlw	128
 10993  0DC7  00EB               	movwf	??_main
 10994  0DC8  086B               	movf	??_main,w
 10995  0DC9  00F8               	movwf	clcd_print@addr
 10996  0DCA  160A  158A  27D1  120A  158A  	fcall	_clcd_print
 10997                           
 10998                           ;main.c: 529:                                 clcd_putch('*', (0xC0 + 6+count));
 10999  0DCF  3028               	movlw	low (STR_1| (0+32768))
 11000  0DD0  00F6               	movwf	clcd_print@str
 11001  0DD1  3090               	movlw	high (STR_1| (0+32768))
 11002  0DD2  00F7               	movwf	clcd_print@str+1
 11003  0DD3  30C0               	movlw	192
 11004  0DD4  1283               	bcf	3,5	;RP0=0, select bank0
 11005  0DD5  1303               	bcf	3,6	;RP1=0, select bank0
 11006  0DD6  00EB               	movwf	??_main
 11007  0DD7  086B               	movf	??_main,w
 11008  0DD8  00F8               	movwf	clcd_print@addr
 11009  0DD9  160A  158A  27D1  120A  158A  	fcall	_clcd_print
 11010  0DDE                     l5173:
 11011                           
 11012                           ;main.c: 531:                                 count++;
 11013  0DDE  1683               	bsf	3,5	;RP0=1, select bank3
 11014  0DDF  1703               	bsf	3,6	;RP1=1, select bank3
 11015  0DE0  01A9               	clrf	main@temp_password^(0+384)
 11016  0DE1                     l5175:
 11017  0DE1  30FF               	movlw	255
 11018  0DE2  1283               	bcf	3,5	;RP0=0, select bank0
 11019  0DE3  1303               	bcf	3,6	;RP1=0, select bank0
 11020  0DE4  00EB               	movwf	??_main
 11021  0DE5  086B               	movf	??_main,w
 11022  0DE6  00EF               	movwf	main@key_state_301
 11023  0DE7                     l5177:
 11024  0DE7  1683               	bsf	3,5	;RP0=1, select bank3
 11025  0DE8  1703               	bsf	3,6	;RP1=1, select bank3
 11026  0DE9  01B4               	clrf	main@count^(0+384)
 11027  0DEA                     l5179:
 11028                           
 11029                           ;main.c: 534: ;main.c: 535:                             if(time_count_isr < 10000)
 11030  0DEA  3001               	movlw	1
 11031  0DEB  160A  158A  274E  120A  158A  	fcall	_read_matrix_keypad
 11032  0DF0  1283               	bcf	3,5	;RP0=0, select bank0
 11033  0DF1  1303               	bcf	3,6	;RP1=0, select bank0
 11034  0DF2  00EB               	movwf	??_main
 11035  0DF3  086B               	movf	??_main,w
 11036  0DF4  00EF               	movwf	main@key_state_301
 11037  0DF5                     l5181:
 11038                           
 11039                           ;main.c: 537:                                 clcd_putch('_', (0xC0 + 6+count));
 11040  0DF5  3004               	movlw	4
 11041  0DF6  1683               	bsf	3,5	;RP0=1, select bank3
 11042  0DF7  1703               	bsf	3,6	;RP1=1, select bank3
 11043  0DF8  0634               	xorwf	main@count^(0+384),w
 11044  0DF9  1D03               	btfss	3,2
 11045  0DFA  2DFC               	goto	u7171
 11046  0DFB  2DFD               	goto	u7170
 11047  0DFC                     u7171:
 11048  0DFC  2DFE               	goto	l5185
 11049  0DFD                     u7170:
 11050  0DFD  2E6D               	goto	l5207
 11051  0DFE                     l5185:
 11052                           
 11053                           ;main.c: 541:                                clcd_putch(' ', (0xC0 + 6+count));
 11054  0DFE  3005               	movlw	5
 11055  0DFF  1283               	bcf	3,5	;RP0=0, select bank0
 11056  0E00  1303               	bcf	3,6	;RP1=0, select bank0
 11057  0E01  066F               	xorwf	main@key_state_301,w
 11058  0E02  1D03               	btfss	3,2
 11059  0E03  2E05               	goto	u7181
 11060  0E04  2E06               	goto	u7180
 11061  0E05                     u7181:
 11062  0E05  2E22               	goto	l5193
 11063  0E06                     u7180:
 11064  0E06                     l5187:
 11065                           
 11066                           ;main.c: 542:                             };main.c: 543:                         }
 11067  0E06  1683               	bsf	3,5	;RP0=1, select bank3
 11068  0E07  1703               	bsf	3,6	;RP1=1, select bank3
 11069  0E08  0834               	movf	main@count^(0+384),w
 11070  0E09  3EC6               	addlw	198
 11071  0E0A  1283               	bcf	3,5	;RP0=0, select bank0
 11072  0E0B  1303               	bcf	3,6	;RP1=0, select bank0
 11073  0E0C  00EB               	movwf	??_main
 11074  0E0D  086B               	movf	??_main,w
 11075  0E0E  00F6               	movwf	clcd_putch@addr
 11076  0E0F  302A               	movlw	42
 11077  0E10  160A  158A  25D8  120A  158A  	fcall	_clcd_putch
 11078  0E15                     l5189:
 11079                           
 11080                           ;main.c: 544:                         write_24c02(0x04, temp_password);
 11081  0E15  1403               	setc
 11082  0E16  1683               	bsf	3,5	;RP0=1, select bank3
 11083  0E17  1703               	bsf	3,6	;RP1=1, select bank3
 11084  0E18  0DA9               	rlf	main@temp_password^(0+384),f
 11085  0E19                     l5191:
 11086                           
 11087                           ;main.c: 545: 
 11088  0E19  3001               	movlw	1
 11089  0E1A  1283               	bcf	3,5	;RP0=0, select bank0
 11090  0E1B  1303               	bcf	3,6	;RP1=0, select bank0
 11091  0E1C  00EB               	movwf	??_main
 11092  0E1D  086B               	movf	??_main,w
 11093  0E1E  1683               	bsf	3,5	;RP0=1, select bank3
 11094  0E1F  1703               	bsf	3,6	;RP1=1, select bank3
 11095  0E20  07B4               	addwf	main@count^(0+384),f
 11096                           
 11097                           ;main.c: 546:                         clcd_print("  New Password  ", (0x80 + 0));
 11098  0E21  2DEA               	goto	l5179
 11099  0E22                     l5193:
 11100                           
 11101                           ;main.c: 548:                         for(unsigned int i = 0; i < 500; i++ )
 11102  0E22  3006               	movlw	6
 11103  0E23  066F               	xorwf	main@key_state_301,w
 11104  0E24  1D03               	btfss	3,2
 11105  0E25  2E27               	goto	u7191
 11106  0E26  2E28               	goto	u7190
 11107  0E27                     u7191:
 11108  0E27  2E44               	goto	l5201
 11109  0E28                     u7190:
 11110  0E28                     l5195:
 11111                           
 11112                           ;main.c: 549:                             for(unsigned int j = 0; j < 500; j++ );;main.c
      +                          : 550:                     }
 11113  0E28  1683               	bsf	3,5	;RP0=1, select bank3
 11114  0E29  1703               	bsf	3,6	;RP1=1, select bank3
 11115  0E2A  0834               	movf	main@count^(0+384),w
 11116  0E2B  3EC6               	addlw	198
 11117  0E2C  1283               	bcf	3,5	;RP0=0, select bank0
 11118  0E2D  1303               	bcf	3,6	;RP1=0, select bank0
 11119  0E2E  00EB               	movwf	??_main
 11120  0E2F  086B               	movf	??_main,w
 11121  0E30  00F6               	movwf	clcd_putch@addr
 11122  0E31  302A               	movlw	42
 11123  0E32  160A  158A  25D8  120A  158A  	fcall	_clcd_putch
 11124  0E37                     l5197:
 11125                           
 11126                           ;main.c: 551:                     else
 11127  0E37  1683               	bsf	3,5	;RP0=1, select bank3
 11128  0E38  1703               	bsf	3,6	;RP1=1, select bank3
 11129  0E39  0829               	movf	main@temp_password^(0+384),w
 11130  0E3A  1283               	bcf	3,5	;RP0=0, select bank0
 11131  0E3B  1303               	bcf	3,6	;RP1=0, select bank0
 11132  0E3C  00EB               	movwf	??_main
 11133  0E3D  076B               	addwf	??_main,w
 11134  0E3E  00EC               	movwf	??_main+1
 11135  0E3F  086C               	movf	??_main+1,w
 11136  0E40  1683               	bsf	3,5	;RP0=1, select bank3
 11137  0E41  1703               	bsf	3,6	;RP1=1, select bank3
 11138  0E42  00A9               	movwf	main@temp_password^(0+384)
 11139  0E43  2E19               	goto	l5191
 11140  0E44                     l5201:
 11141                           
 11142                           ;main.c: 556:                             for(unsigned int j = 0; j < 500; j++ );
 11143  0E44  3027               	movlw	39
 11144  0E45  027B               	subwf	_time_count_isr+1,w
 11145  0E46  3010               	movlw	16
 11146  0E47  1903               	skipnz
 11147  0E48  027A               	subwf	_time_count_isr,w
 11148  0E49  1803               	skipnc
 11149  0E4A  2E4C               	goto	u7201
 11150  0E4B  2E4D               	goto	u7200
 11151  0E4C                     u7201:
 11152  0E4C  2E5D               	goto	l5205
 11153  0E4D                     u7200:
 11154  0E4D                     l5203:
 11155                           
 11156                           ;main.c: 557:                     };main.c: 558:                 }
 11157  0E4D  1683               	bsf	3,5	;RP0=1, select bank3
 11158  0E4E  1703               	bsf	3,6	;RP1=1, select bank3
 11159  0E4F  0834               	movf	main@count^(0+384),w
 11160  0E50  3EC6               	addlw	198
 11161  0E51  1283               	bcf	3,5	;RP0=0, select bank0
 11162  0E52  1303               	bcf	3,6	;RP1=0, select bank0
 11163  0E53  00EB               	movwf	??_main
 11164  0E54  086B               	movf	??_main,w
 11165  0E55  00F6               	movwf	clcd_putch@addr
 11166  0E56  305F               	movlw	95
 11167  0E57  160A  158A  25D8  120A  158A  	fcall	_clcd_putch
 11168                           
 11169                           ;main.c: 559:                 else if(menu_select == 3)
 11170  0E5C  2DEA               	goto	l5179
 11171  0E5D                     l5205:
 11172                           
 11173                           ;main.c: 561:                     event_count = 0;;main.c: 562:                     even
      +                          t_idx = 0;
 11174  0E5D  1683               	bsf	3,5	;RP0=1, select bank3
 11175  0E5E  1703               	bsf	3,6	;RP1=1, select bank3
 11176  0E5F  0834               	movf	main@count^(0+384),w
 11177  0E60  3EC6               	addlw	198
 11178  0E61  1283               	bcf	3,5	;RP0=0, select bank0
 11179  0E62  1303               	bcf	3,6	;RP1=0, select bank0
 11180  0E63  00EB               	movwf	??_main
 11181  0E64  086B               	movf	??_main,w
 11182  0E65  00F6               	movwf	clcd_putch@addr
 11183  0E66  3020               	movlw	32
 11184  0E67  160A  158A  25D8  120A  158A  	fcall	_clcd_putch
 11185  0E6C  2DEA               	goto	l5179
 11186  0E6D                     l5207:
 11187                           
 11188                           ;main.c: 565:                         for(unsigned int i = 0; i < 500; i++ )
 11189  0E6D  0829               	movf	main@temp_password^(0+384),w
 11190  0E6E  1283               	bcf	3,5	;RP0=0, select bank0
 11191  0E6F  1303               	bcf	3,6	;RP1=0, select bank0
 11192  0E70  00EB               	movwf	??_main
 11193  0E71  086B               	movf	??_main,w
 11194  0E72  00F3               	movwf	write_24c02@data
 11195  0E73  3004               	movlw	4
 11196  0E74  160A  158A  2633  120A  158A  	fcall	_write_24c02
 11197  0E79                     l5209:
 11198                           
 11199                           ;main.c: 567:                 }
 11200  0E79  30D2               	movlw	low (STR_52| (0+32768))
 11201  0E7A  00F6               	movwf	clcd_print@str
 11202  0E7B  3090               	movlw	high (STR_52| (0+32768))
 11203  0E7C  00F7               	movwf	clcd_print@str+1
 11204  0E7D  3080               	movlw	128
 11205  0E7E  1283               	bcf	3,5	;RP0=0, select bank0
 11206  0E7F  1303               	bcf	3,6	;RP1=0, select bank0
 11207  0E80  00EB               	movwf	??_main
 11208  0E81  086B               	movf	??_main,w
 11209  0E82  00F8               	movwf	clcd_print@addr
 11210  0E83  160A  158A  27D1  120A  158A  	fcall	_clcd_print
 11211  0E88                     l5211:
 11212                           
 11213                           ;main.c: 568:                 else
 11214  0E88  30C1               	movlw	low (STR_53| (0+32768))
 11215  0E89  00F6               	movwf	clcd_print@str
 11216  0E8A  3090               	movlw	high (STR_53| (0+32768))
 11217  0E8B  00F7               	movwf	clcd_print@str+1
 11218  0E8C  30C0               	movlw	192
 11219  0E8D  1283               	bcf	3,5	;RP0=0, select bank0
 11220  0E8E  1303               	bcf	3,6	;RP1=0, select bank0
 11221  0E8F  00EB               	movwf	??_main
 11222  0E90  086B               	movf	??_main,w
 11223  0E91  00F8               	movwf	clcd_print@addr
 11224  0E92  160A  158A  27D1  120A  158A  	fcall	_clcd_print
 11225  0E97                     l5213:
 11226                           
 11227                           ;main.c: 569:                 {
 11228  0E97  1683               	bsf	3,5	;RP0=1, select bank3
 11229  0E98  1703               	bsf	3,6	;RP1=1, select bank3
 11230  0E99  0194               	clrf	main@i_305^(0+384)
 11231  0E9A  0195               	clrf	(main@i_305+1)^(0+384)
 11232  0E9B                     l5215:
 11233  0E9B  3001               	movlw	1
 11234  0E9C  0215               	subwf	(main@i_305+1)^(0+384),w
 11235  0E9D  30F4               	movlw	244
 11236  0E9E  1903               	skipnz
 11237  0E9F  0214               	subwf	main@i_305^(0+384),w
 11238  0EA0  1C03               	skipc
 11239  0EA1  2EA3               	goto	u7211
 11240  0EA2  2EA4               	goto	u7210
 11241  0EA3                     u7211:
 11242  0EA3  2EA5               	goto	l5219
 11243  0EA4                     u7210:
 11244  0EA4  2B2E               	goto	u6920
 11245  0EA5                     l5219:
 11246                           
 11247                           ;main.c: 570:                     uart_puts("     Time     G  SP\n\r");
 11248  0EA5  0196               	clrf	main@j_306^(0+384)
 11249  0EA6  0197               	clrf	(main@j_306+1)^(0+384)
 11250  0EA7                     l5221:
 11251  0EA7  3001               	movlw	1
 11252  0EA8  0217               	subwf	(main@j_306+1)^(0+384),w
 11253  0EA9  30F4               	movlw	244
 11254  0EAA  1903               	skipnz
 11255  0EAB  0216               	subwf	main@j_306^(0+384),w
 11256  0EAC  1C03               	skipc
 11257  0EAD  2EAF               	goto	u7221
 11258  0EAE  2EB0               	goto	u7220
 11259  0EAF                     u7221:
 11260  0EAF  2EB1               	goto	l5225
 11261  0EB0                     u7220:
 11262  0EB0  2EC0               	goto	l5227
 11263  0EB1                     l5225:
 11264  0EB1  3001               	movlw	1
 11265  0EB2  0796               	addwf	main@j_306^(0+384),f
 11266  0EB3  1803               	skipnc
 11267  0EB4  0A97               	incf	(main@j_306+1)^(0+384),f
 11268  0EB5  3000               	movlw	0
 11269  0EB6  0797               	addwf	(main@j_306+1)^(0+384),f
 11270  0EB7  3001               	movlw	1
 11271  0EB8  0217               	subwf	(main@j_306+1)^(0+384),w
 11272  0EB9  30F4               	movlw	244
 11273  0EBA  1903               	skipnz
 11274  0EBB  0216               	subwf	main@j_306^(0+384),w
 11275  0EBC  1C03               	skipc
 11276  0EBD  2EBF               	goto	u7231
 11277  0EBE  2EC0               	goto	u7230
 11278  0EBF                     u7231:
 11279  0EBF  2EB1               	goto	l5225
 11280  0EC0                     u7230:
 11281  0EC0                     l5227:
 11282  0EC0  3001               	movlw	1
 11283  0EC1  0794               	addwf	main@i_305^(0+384),f
 11284  0EC2  1803               	skipnc
 11285  0EC3  0A95               	incf	(main@i_305+1)^(0+384),f
 11286  0EC4  3000               	movlw	0
 11287  0EC5  0795               	addwf	(main@i_305+1)^(0+384),f
 11288  0EC6  3001               	movlw	1
 11289  0EC7  0215               	subwf	(main@i_305+1)^(0+384),w
 11290  0EC8  30F4               	movlw	244
 11291  0EC9  1903               	skipnz
 11292  0ECA  0214               	subwf	main@i_305^(0+384),w
 11293  0ECB  1C03               	skipc
 11294  0ECC  2ECE               	goto	u7241
 11295  0ECD  2ECF               	goto	u7240
 11296  0ECE                     u7241:
 11297  0ECE  2EA5               	goto	l5219
 11298  0ECF                     u7240:
 11299  0ECF  2B2E               	goto	u6920
 11300  0ED0                     l5229:
 11301                           
 11302                           ;main.c: 573:                     {;main.c: 574:                         for(char i = 0;
      +                           i < 16; i++)
 11303  0ED0  30F4               	movlw	low (STR_16| (0+32768))
 11304  0ED1  00F6               	movwf	clcd_print@str
 11305  0ED2  3090               	movlw	high (STR_16| (0+32768))
 11306  0ED3  00F7               	movwf	clcd_print@str+1
 11307  0ED4  3080               	movlw	128
 11308  0ED5  00EB               	movwf	??_main
 11309  0ED6  086B               	movf	??_main,w
 11310  0ED7  00F8               	movwf	clcd_print@addr
 11311  0ED8  160A  158A  27D1  120A  158A  	fcall	_clcd_print
 11312                           
 11313                           ;main.c: 575:                         {
 11314  0EDD  3028               	movlw	low (STR_1| (0+32768))
 11315  0EDE  00F6               	movwf	clcd_print@str
 11316  0EDF  3090               	movlw	high (STR_1| (0+32768))
 11317  0EE0  00F7               	movwf	clcd_print@str+1
 11318  0EE1  30C0               	movlw	192
 11319  0EE2  1283               	bcf	3,5	;RP0=0, select bank0
 11320  0EE3  1303               	bcf	3,6	;RP1=0, select bank0
 11321  0EE4  00EB               	movwf	??_main
 11322  0EE5  086B               	movf	??_main,w
 11323  0EE6  00F8               	movwf	clcd_print@addr
 11324  0EE7  160A  158A  27D1  120A  158A  	fcall	_clcd_print
 11325  0EEC                     l5231:
 11326                           
 11327                           ;main.c: 576:                             log_display[i] = read_24c02(addr[j] + i);
 11328  0EEC  1683               	bsf	3,5	;RP0=1, select bank3
 11329  0EED  1703               	bsf	3,6	;RP1=1, select bank3
 11330  0EEE  0198               	clrf	main@i_309^(0+384)
 11331  0EEF  0199               	clrf	(main@i_309+1)^(0+384)
 11332  0EF0                     l5233:
 11333  0EF0  3001               	movlw	1
 11334  0EF1  0219               	subwf	(main@i_309+1)^(0+384),w
 11335  0EF2  30F4               	movlw	244
 11336  0EF3  1903               	skipnz
 11337  0EF4  0218               	subwf	main@i_309^(0+384),w
 11338  0EF5  1C03               	skipc
 11339  0EF6  2EF8               	goto	u7251
 11340  0EF7  2EF9               	goto	u7250
 11341  0EF8                     u7251:
 11342  0EF8  2EFA               	goto	l5237
 11343  0EF9                     u7250:
 11344  0EF9  2B2E               	goto	u6920
 11345  0EFA                     l5237:
 11346                           
 11347                           ;main.c: 577:                         }
 11348  0EFA  019A               	clrf	main@j_310^(0+384)
 11349  0EFB  019B               	clrf	(main@j_310+1)^(0+384)
 11350  0EFC                     l5239:
 11351  0EFC  3001               	movlw	1
 11352  0EFD  021B               	subwf	(main@j_310+1)^(0+384),w
 11353  0EFE  30F4               	movlw	244
 11354  0EFF  1903               	skipnz
 11355  0F00  021A               	subwf	main@j_310^(0+384),w
 11356  0F01  1C03               	skipc
 11357  0F02  2F04               	goto	u7261
 11358  0F03  2F05               	goto	u7260
 11359  0F04                     u7261:
 11360  0F04  2F06               	goto	l5243
 11361  0F05                     u7260:
 11362  0F05  2F15               	goto	l5245
 11363  0F06                     l5243:
 11364  0F06  3001               	movlw	1
 11365  0F07  079A               	addwf	main@j_310^(0+384),f
 11366  0F08  1803               	skipnc
 11367  0F09  0A9B               	incf	(main@j_310+1)^(0+384),f
 11368  0F0A  3000               	movlw	0
 11369  0F0B  079B               	addwf	(main@j_310+1)^(0+384),f
 11370  0F0C  3001               	movlw	1
 11371  0F0D  021B               	subwf	(main@j_310+1)^(0+384),w
 11372  0F0E  30F4               	movlw	244
 11373  0F0F  1903               	skipnz
 11374  0F10  021A               	subwf	main@j_310^(0+384),w
 11375  0F11  1C03               	skipc
 11376  0F12  2F14               	goto	u7271
 11377  0F13  2F15               	goto	u7270
 11378  0F14                     u7271:
 11379  0F14  2F06               	goto	l5243
 11380  0F15                     u7270:
 11381  0F15                     l5245:
 11382  0F15  3001               	movlw	1
 11383  0F16  0798               	addwf	main@i_309^(0+384),f
 11384  0F17  1803               	skipnc
 11385  0F18  0A99               	incf	(main@i_309+1)^(0+384),f
 11386  0F19  3000               	movlw	0
 11387  0F1A  0799               	addwf	(main@i_309+1)^(0+384),f
 11388  0F1B  3001               	movlw	1
 11389  0F1C  0219               	subwf	(main@i_309+1)^(0+384),w
 11390  0F1D  30F4               	movlw	244
 11391  0F1E  1903               	skipnz
 11392  0F1F  0218               	subwf	main@i_309^(0+384),w
 11393  0F20  1C03               	skipc
 11394  0F21  2F23               	goto	u7281
 11395  0F22  2F24               	goto	u7280
 11396  0F23                     u7281:
 11397  0F23  2EFA               	goto	l5237
 11398  0F24                     u7280:
 11399  0F24  2B2E               	goto	u6920
 11400  0F25                     l5247:
 11401  0F25  3003               	movlw	3
 11402  0F26  0639               	xorwf	main@menu_select^(0+384),w
 11403  0F27  043A               	iorwf	(main@menu_select+1)^(0+384),w
 11404  0F28  1D03               	btfss	3,2
 11405  0F29  2F2B               	goto	u7291
 11406  0F2A  2F2C               	goto	u7290
 11407  0F2B                     u7291:
 11408  0F2B  2F87               	goto	l5269
 11409  0F2C                     u7290:
 11410  0F2C                     l5249:
 11411                           
 11412                           ;main.c: 581:                         uart_puts(log_display);;main.c: 582:              
      +                                 }
 11413  0F2C  01B5               	clrf	main@event_count^(0+384)
 11414  0F2D  01B6               	clrf	(main@event_count+1)^(0+384)
 11415                           
 11416                           ;main.c: 583:                 }
 11417  0F2E  01BB               	clrf	main@event_idx^(0+384)
 11418  0F2F  01BC               	clrf	(main@event_idx+1)^(0+384)
 11419  0F30                     l5251:
 11420                           
 11421                           ;main.c: 584:         }
 11422  0F30  30B0               	movlw	low (STR_56| (0+32768))
 11423  0F31  00F6               	movwf	clcd_print@str
 11424  0F32  3090               	movlw	high (STR_56| (0+32768))
 11425  0F33  00F7               	movwf	clcd_print@str+1
 11426  0F34  3080               	movlw	128
 11427  0F35  1283               	bcf	3,5	;RP0=0, select bank0
 11428  0F36  1303               	bcf	3,6	;RP1=0, select bank0
 11429  0F37  00EB               	movwf	??_main
 11430  0F38  086B               	movf	??_main,w
 11431  0F39  00F8               	movwf	clcd_print@addr
 11432  0F3A  160A  158A  27D1  120A  158A  	fcall	_clcd_print
 11433  0F3F                     l5253:
 11434                           
 11435                           ;main.c: 585:     }
 11436  0F3F  30E3               	movlw	low (STR_57| (0+32768))
 11437  0F40  00F6               	movwf	clcd_print@str
 11438  0F41  3090               	movlw	high (STR_57| (0+32768))
 11439  0F42  00F7               	movwf	clcd_print@str+1
 11440  0F43  30C0               	movlw	192
 11441  0F44  1283               	bcf	3,5	;RP0=0, select bank0
 11442  0F45  1303               	bcf	3,6	;RP1=0, select bank0
 11443  0F46  00EB               	movwf	??_main
 11444  0F47  086B               	movf	??_main,w
 11445  0F48  00F8               	movwf	clcd_print@addr
 11446  0F49  160A  158A  27D1  120A  158A  	fcall	_clcd_print
 11447                           
 11448                           ;main.c: 586:     return;
 11449  0F4E  1683               	bsf	3,5	;RP0=1, select bank3
 11450  0F4F  1703               	bsf	3,6	;RP1=1, select bank3
 11451  0F50  019C               	clrf	main@i_313^(0+384)
 11452  0F51  019D               	clrf	(main@i_313+1)^(0+384)
 11453  0F52                     l5255:
 11454  0F52  3001               	movlw	1
 11455  0F53  021D               	subwf	(main@i_313+1)^(0+384),w
 11456  0F54  30F4               	movlw	244
 11457  0F55  1903               	skipnz
 11458  0F56  021C               	subwf	main@i_313^(0+384),w
 11459  0F57  1C03               	skipc
 11460  0F58  2F5A               	goto	u7301
 11461  0F59  2F5B               	goto	u7300
 11462  0F5A                     u7301:
 11463  0F5A  2F5C               	goto	l5259
 11464  0F5B                     u7300:
 11465  0F5B  2B2E               	goto	u6920
 11466  0F5C                     l5259:
 11467                           
 11468                           ;main.c: 587: }
 11469  0F5C  019E               	clrf	main@j_314^(0+384)
 11470  0F5D  019F               	clrf	(main@j_314+1)^(0+384)
 11471  0F5E                     l5261:
 11472  0F5E  3001               	movlw	1
 11473  0F5F  021F               	subwf	(main@j_314+1)^(0+384),w
 11474  0F60  30F4               	movlw	244
 11475  0F61  1903               	skipnz
 11476  0F62  021E               	subwf	main@j_314^(0+384),w
 11477  0F63  1C03               	skipc
 11478  0F64  2F66               	goto	u7311
 11479  0F65  2F67               	goto	u7310
 11480  0F66                     u7311:
 11481  0F66  2F68               	goto	l5265
 11482  0F67                     u7310:
 11483  0F67  2F77               	goto	l5267
 11484  0F68                     l5265:
 11485  0F68  3001               	movlw	1
 11486  0F69  079E               	addwf	main@j_314^(0+384),f
 11487  0F6A  1803               	skipnc
 11488  0F6B  0A9F               	incf	(main@j_314+1)^(0+384),f
 11489  0F6C  3000               	movlw	0
 11490  0F6D  079F               	addwf	(main@j_314+1)^(0+384),f
 11491  0F6E  3001               	movlw	1
 11492  0F6F  021F               	subwf	(main@j_314+1)^(0+384),w
 11493  0F70  30F4               	movlw	244
 11494  0F71  1903               	skipnz
 11495  0F72  021E               	subwf	main@j_314^(0+384),w
 11496  0F73  1C03               	skipc
 11497  0F74  2F76               	goto	u7321
 11498  0F75  2F77               	goto	u7320
 11499  0F76                     u7321:
 11500  0F76  2F68               	goto	l5265
 11501  0F77                     u7320:
 11502  0F77                     l5267:
 11503  0F77  3001               	movlw	1
 11504  0F78  079C               	addwf	main@i_313^(0+384),f
 11505  0F79  1803               	skipnc
 11506  0F7A  0A9D               	incf	(main@i_313+1)^(0+384),f
 11507  0F7B  3000               	movlw	0
 11508  0F7C  079D               	addwf	(main@i_313+1)^(0+384),f
 11509  0F7D  3001               	movlw	1
 11510  0F7E  021D               	subwf	(main@i_313+1)^(0+384),w
 11511  0F7F  30F4               	movlw	244
 11512  0F80  1903               	skipnz
 11513  0F81  021C               	subwf	main@i_313^(0+384),w
 11514  0F82  1C03               	skipc
 11515  0F83  2F85               	goto	u7331
 11516  0F84  2F86               	goto	u7330
 11517  0F85                     u7331:
 11518  0F85  2F5C               	goto	l5259
 11519  0F86                     u7330:
 11520  0F86  2B2E               	goto	u6920
 11521  0F87                     l5269:
 11522  0F87  3000               	movlw	low (STR_58| (0+32768))
 11523  0F88  00F3               	movwf	uart_puts@s
 11524  0F89  3090               	movlw	high (STR_58| (0+32768))
 11525  0F8A  00F4               	movwf	uart_puts@s+1
 11526  0F8B  160A  158A  26D8  120A  158A  	fcall	_uart_puts
 11527  0F90                     l5271:
 11528  0F90  1683               	bsf	3,5	;RP0=1, select bank3
 11529  0F91  1703               	bsf	3,6	;RP1=1, select bank3
 11530  0F92  01A0               	clrf	main@j_317^(0+384)
 11531  0F93  2FE5               	goto	l5293
 11532  0F94                     l5273:
 11533  0F94  1683               	bsf	3,5	;RP0=1, select bank3
 11534  0F95  1703               	bsf	3,6	;RP1=1, select bank3
 11535  0F96  01B1               	clrf	main@i_318^(0+384)
 11536  0F97                     l5275:
 11537  0F97  3010               	movlw	16
 11538  0F98  0231               	subwf	main@i_318^(0+384),w
 11539  0F99  1C03               	skipc
 11540  0F9A  2F9C               	goto	u7341
 11541  0F9B  2F9D               	goto	u7340
 11542  0F9C                     u7341:
 11543  0F9C  2F9E               	goto	l5279
 11544  0F9D                     u7340:
 11545  0F9D  2FC3               	goto	l5285
 11546  0F9E                     l5279:
 11547  0F9E  0820               	movf	main@j_317^(0+384),w
 11548  0F9F  1283               	bcf	3,5	;RP0=0, select bank0
 11549  0FA0  1303               	bcf	3,6	;RP1=0, select bank0
 11550  0FA1  00EB               	movwf	??_main
 11551  0FA2  076B               	addwf	??_main,w
 11552  0FA3  3EC4               	addlw	(low (main@addr| 0))& (0+255)
 11553  0FA4  0084               	movwf	4
 11554  0FA5  1683               	bsf	3,5	;RP0=1, select bank3
 11555  0FA6  1703               	bsf	3,6	;RP1=1, select bank3
 11556  0FA7  0831               	movf	main@i_318^(0+384),w
 11557  0FA8  1383               	bcf	3,7	;select IRP bank1
 11558  0FA9  0700               	addwf	0,w
 11559  0FAA  160A  158A  2777  120A  158A  	fcall	_read_24c02
 11560  0FAF  1283               	bcf	3,5	;RP0=0, select bank0
 11561  0FB0  1303               	bcf	3,6	;RP1=0, select bank0
 11562  0FB1  00EC               	movwf	??_main+1
 11563  0FB2  1683               	bsf	3,5	;RP0=1, select bank3
 11564  0FB3  1703               	bsf	3,6	;RP1=1, select bank3
 11565  0FB4  0831               	movf	main@i_318^(0+384),w
 11566  0FB5  3EB1               	addlw	(low (main@log_display_316| 0))& (0+255)
 11567  0FB6  0084               	movwf	4
 11568  0FB7  1283               	bcf	3,5	;RP0=0, select bank0
 11569  0FB8  1303               	bcf	3,6	;RP1=0, select bank0
 11570  0FB9  086C               	movf	??_main+1,w
 11571  0FBA  1383               	bcf	3,7	;select IRP bank1
 11572  0FBB  0080               	movwf	0
 11573  0FBC                     l5281:
 11574  0FBC  3001               	movlw	1
 11575  0FBD  00EB               	movwf	??_main
 11576  0FBE  086B               	movf	??_main,w
 11577  0FBF  1683               	bsf	3,5	;RP0=1, select bank3
 11578  0FC0  1703               	bsf	3,6	;RP1=1, select bank3
 11579  0FC1  07B1               	addwf	main@i_318^(0+384),f
 11580  0FC2  2F97               	goto	l5275
 11581  0FC3                     l5285:
 11582  0FC3  300A               	movlw	10
 11583  0FC4  1283               	bcf	3,5	;RP0=0, select bank0
 11584  0FC5  1303               	bcf	3,6	;RP1=0, select bank0
 11585  0FC6  00EB               	movwf	??_main
 11586  0FC7  086B               	movf	??_main,w
 11587  0FC8  1683               	bsf	3,5	;RP0=1, select bank1
 11588  0FC9  1303               	bcf	3,6	;RP1=0, select bank1
 11589  0FCA  00C1               	movwf	(main@log_display_316^(0+128)+16)
 11590  0FCB  300D               	movlw	13
 11591  0FCC  1283               	bcf	3,5	;RP0=0, select bank0
 11592  0FCD  1303               	bcf	3,6	;RP1=0, select bank0
 11593  0FCE  00EB               	movwf	??_main
 11594  0FCF  086B               	movf	??_main,w
 11595  0FD0  1683               	bsf	3,5	;RP0=1, select bank1
 11596  0FD1  1303               	bcf	3,6	;RP1=0, select bank1
 11597  0FD2  00C2               	movwf	(main@log_display_316^(0+128)+17)
 11598  0FD3                     l5287:
 11599  0FD3  01C3               	clrf	(main@log_display_316^(0+128)+18)
 11600  0FD4                     l5289:
 11601  0FD4  30B1               	movlw	(low (main@log_display_316| 0))& (0+255)
 11602  0FD5  00F3               	movwf	uart_puts@s
 11603  0FD6  3000               	movlw	0
 11604  0FD7  00F4               	movwf	uart_puts@s+1
 11605  0FD8  160A  158A  26D8  120A  158A  	fcall	_uart_puts
 11606  0FDD                     l5291:
 11607  0FDD  3001               	movlw	1
 11608  0FDE  1283               	bcf	3,5	;RP0=0, select bank0
 11609  0FDF  1303               	bcf	3,6	;RP1=0, select bank0
 11610  0FE0  00EB               	movwf	??_main
 11611  0FE1  086B               	movf	??_main,w
 11612  0FE2  1683               	bsf	3,5	;RP0=1, select bank3
 11613  0FE3  1703               	bsf	3,6	;RP1=1, select bank3
 11614  0FE4  07A0               	addwf	main@j_317^(0+384),f
 11615  0FE5                     l5293:
 11616  0FE5  0820               	movf	main@j_317^(0+384),w
 11617  0FE6  1283               	bcf	3,5	;RP0=0, select bank0
 11618  0FE7  1303               	bcf	3,6	;RP1=0, select bank0
 11619  0FE8  00EB               	movwf	??_main
 11620  0FE9  01EC               	clrf	??_main+1
 11621  0FEA  1683               	bsf	3,5	;RP0=1, select bank3
 11622  0FEB  1703               	bsf	3,6	;RP1=1, select bank3
 11623  0FEC  0836               	movf	(main@event_count+1)^(0+384),w
 11624  0FED  1283               	bcf	3,5	;RP0=0, select bank0
 11625  0FEE  1303               	bcf	3,6	;RP1=0, select bank0
 11626  0FEF  026C               	subwf	??_main+1,w
 11627  0FF0  1D03               	skipz
 11628  0FF1  2FF8               	goto	u7355
 11629  0FF2  1683               	bsf	3,5	;RP0=1, select bank3
 11630  0FF3  1703               	bsf	3,6	;RP1=1, select bank3
 11631  0FF4  0835               	movf	main@event_count^(0+384),w
 11632  0FF5  1283               	bcf	3,5	;RP0=0, select bank0
 11633  0FF6  1303               	bcf	3,6	;RP1=0, select bank0
 11634  0FF7  026B               	subwf	??_main,w
 11635  0FF8                     u7355:
 11636  0FF8  1C03               	skipc
 11637  0FF9  2FFB               	goto	u7351
 11638  0FFA  2FFC               	goto	u7350
 11639  0FFB                     u7351:
 11640  0FFB  2F94               	goto	l5273
 11641  0FFC                     u7350:
 11642  0FFC  2B2E               	goto	u6920
 11643  0FFD  120A  118A  280C   	ljmp	start
 11644  1000                     __end_of_main:

Data Sizes:
    Strings     447
    Constant    0
    Data        35
    BSS         14
    Persistent  0
    Stack       0

Auto Spaces:
    Space          Size  Autos    Used
    COMMON           14     10      12
    BANK0            80     80      80
    BANK1            80     80      80
    BANK3            96     46      93
    BANK2            96      0       0

Pointer List with Targets:

    uart_puts@s	PTR const unsigned char  size(2) Largest target is 22
		 -> main@log_display_316(BANK1[19]), STR_58(CODE[22]), 

    main@gear	PTR unsigned char [7] size(2) Largest target is 3
		 -> STR_8(CODE[3]), STR_7(CODE[3]), STR_6(CODE[3]), STR_5(CODE[3]), 
		 -> STR_4(CODE[3]), STR_3(CODE[3]), STR_2(CODE[3]), 

    main@F919	PTR unsigned char [7] size(2) Largest target is 3
		 -> STR_8(CODE[3]), STR_7(CODE[3]), STR_6(CODE[3]), STR_5(CODE[3]), 
		 -> STR_4(CODE[3]), STR_3(CODE[3]), STR_2(CODE[3]), 

    write_external_eeprom@gear	PTR unsigned char  size(2) Largest target is 3
		 -> STR_14(CODE[3]), STR_8(CODE[3]), STR_7(CODE[3]), STR_6(CODE[3]), 
		 -> STR_5(CODE[3]), STR_4(CODE[3]), STR_3(CODE[3]), STR_2(CODE[3]), 

    get_time@clock_reg	PTR unsigned char  size(1) Largest target is 3
		 -> main@clock_reg(BANK3[3]), 

    display_time@clock_reg	PTR unsigned char  size(1) Largest target is 3
		 -> main@clock_reg(BANK3[3]), 

    clcd_print@str	PTR const unsigned char  size(2) Largest target is 18
		 -> STR_57(CODE[17]), STR_56(CODE[17]), STR_55(CODE[17]), STR_54(CODE[17]), 
		 -> STR_53(CODE[17]), STR_52(CODE[17]), STR_51(CODE[17]), STR_50(CODE[17]), 
		 -> STR_49(CODE[17]), STR_48(CODE[3]), STR_47(CODE[3]), STR_46(CODE[3]), 
		 -> STR_45(CODE[17]), STR_44(CODE[17]), STR_43(CODE[17]), main@log_display(BANK1[17]), 
		 -> STR_42(CODE[17]), STR_41(CODE[17]), STR_40(CODE[18]), STR_39(CODE[17]), 
		 -> STR_38(CODE[17]), STR_37(CODE[17]), STR_36(CODE[17]), STR_35(CODE[17]), 
		 -> STR_34(CODE[17]), STR_33(CODE[17]), STR_32(CODE[17]), STR_31(CODE[17]), 
		 -> STR_30(CODE[17]), STR_29(CODE[17]), STR_28(CODE[17]), STR_27(CODE[17]), 
		 -> STR_26(CODE[17]), STR_25(CODE[17]), STR_24(CODE[17]), STR_23(CODE[17]), 
		 -> STR_22(CODE[17]), STR_21(CODE[17]), STR_20(CODE[17]), STR_19(CODE[17]), 
		 -> STR_18(CODE[17]), STR_17(CODE[17]), STR_16(CODE[17]), STR_15(CODE[17]), 
		 -> STR_13(CODE[3]), STR_12(CODE[3]), STR_11(CODE[17]), STR_10(CODE[17]), 
		 -> STR_9(CODE[17]), STR_8(CODE[3]), STR_7(CODE[3]), STR_6(CODE[3]), 
		 -> STR_5(CODE[3]), STR_4(CODE[3]), STR_3(CODE[3]), STR_2(CODE[3]), 
		 -> STR_1(CODE[17]), time(BANK3[9]), buff(BANK3[3]), 


Critical Paths under _main in COMMON

    _main->___fltol
    _main->_display
    _main->_display_time
    _main->_get_time
    _write_external_eeprom->_write_24c02
    _write_24c02->_i2c_write
    _uart_puts->_uart_putchar
    _init_config->_init_ds1307
    _init_uart->___lldiv
    _init_i2c->___lldiv
    _init_ds1307->_read_ds1307
    _write_ds1307->_i2c_write
    _init_clcd->_init_display_controller
    _init_display_controller->_clcd_write
    _get_time->_read_ds1307
    _read_ds1307->_i2c_read
    _display_time->_clcd_print
    _display->___awmod
    _display->_clcd_print
    _check_password->_clcd_print
    _read_matrix_keypad->_scan_keypad
    _read_24c02->_i2c_read
    _clcd_putch->_clcd_write
    _clcd_print->_clcd_write
    ___xxtofl->_read_adc
    ___fltol->_read_adc
    ___flmul->_read_adc
    ___fldiv->_read_adc

Critical Paths under _isr in COMMON

    None.

Critical Paths under _main in BANK0

    _main->___fltol
    _init_config->_init_i2c
    _init_config->_init_uart
    _init_uart->___lldiv
    _init_i2c->___lldiv
    _display->___awdiv
    ___fltol->___flmul
    ___flmul->___fldiv
    ___fldiv->___xxtofl

Critical Paths under _isr in BANK0

    None.

Critical Paths under _main in BANK1

    None.

Critical Paths under _isr in BANK1

    None.

Critical Paths under _main in BANK3

    None.

Critical Paths under _isr in BANK3

    None.

Critical Paths under _main in BANK2

    None.

Critical Paths under _isr in BANK2

    None.

Call Graph Tables:

 ---------------------------------------------------------------------------------
 (Depth) Function   	        Calls       Base Space   Used Autos Params    Refs
 ---------------------------------------------------------------------------------
 (0) _main                                               132   132      0   69674
                                             75 BANK0      5     5      0
                                              0 BANK1     80    80      0
                                              0 BANK3     46    46      0
                            ___fldiv
                            ___flmul
                            ___fltol
                           ___xxtofl
                     _check_password
                         _clcd_print
                         _clcd_putch
                            _display
                       _display_time
                           _get_time
                        _init_config
                         _read_24c02
                           _read_adc
                 _read_matrix_keypad
                          _uart_puts
                        _write_24c02
                       _write_ds1307
              _write_external_eeprom
 ---------------------------------------------------------------------------------
 (1) _write_external_eeprom                               10     4      6    2478
                                              5 COMMON     4     4      0
                                              0 BANK0      6     0      6
                        _write_24c02
 ---------------------------------------------------------------------------------
 (2) _write_24c02                                          2     1      1    1173
                                              3 COMMON     2     1      1
                          _i2c_start
                           _i2c_stop
                          _i2c_write
 ---------------------------------------------------------------------------------
 (1) _uart_puts                                            2     0      2     276
                                              3 COMMON     2     0      2
                       _uart_putchar
 ---------------------------------------------------------------------------------
 (2) _uart_putchar                                         1     1      0      31
                                              2 COMMON     1     1      0
 ---------------------------------------------------------------------------------
 (1) _read_adc                                             6     4      2      65
                                              2 COMMON     6     4      2
 ---------------------------------------------------------------------------------
 (1) _init_config                                          0     0      0    3209
                           _init_adc
                          _init_clcd
                        _init_ds1307
                           _init_i2c
                 _init_matrix_keypad
                        _init_timer0
                          _init_uart
 ---------------------------------------------------------------------------------
 (2) _init_uart                                            8     4      4     722
                                              6 BANK0      8     4      4
                            ___lldiv
 ---------------------------------------------------------------------------------
 (2) _init_timer0                                          0     0      0       0
 ---------------------------------------------------------------------------------
 (2) _init_matrix_keypad                                   0     0      0       0
 ---------------------------------------------------------------------------------
 (2) _init_i2c                                             8     4      4     722
                                              6 BANK0      8     4      4
                            ___lldiv
 ---------------------------------------------------------------------------------
 (3) ___lldiv                                             14     6      8     601
                                              2 COMMON     8     0      8
                                              0 BANK0      6     6      0
 ---------------------------------------------------------------------------------
 (2) _init_ds1307                                          2     2      0     682
                                              8 COMMON     2     2      0
                        _read_ds1307
                       _write_ds1307
 ---------------------------------------------------------------------------------
 (1) _write_ds1307                                         2     1      1     453
                                              3 COMMON     2     1      1
                          _i2c_start
                           _i2c_stop
                          _i2c_write
 ---------------------------------------------------------------------------------
 (2) _init_clcd                                            0     0      0    1083
            _init_display_controller
 ---------------------------------------------------------------------------------
 (3) _init_display_controller                              2     2      0    1083
                                              6 COMMON     2     2      0
                         _clcd_write
 ---------------------------------------------------------------------------------
 (2) _init_adc                                             0     0      0       0
 ---------------------------------------------------------------------------------
 (1) _get_time                                             2     2      0     290
                                              8 COMMON     2     2      0
                        _read_ds1307
 ---------------------------------------------------------------------------------
 (3) _read_ds1307                                          3     3      0     161
                                              5 COMMON     3     3      0
                           _i2c_read
                      _i2c_rep_start
                          _i2c_start
                           _i2c_stop
                          _i2c_write
 ---------------------------------------------------------------------------------
 (1) _display_time                                         3     3      0   11337
                                              9 COMMON     1     1      0
                                              0 BANK0      2     2      0
                         _clcd_print
 ---------------------------------------------------------------------------------
 (1) _display                                              5     3      2   12627
                                              9 COMMON     1     1      0
                                              4 BANK0      4     2      2
                            ___awdiv
                            ___awmod
                         _clcd_print
 ---------------------------------------------------------------------------------
 (2) ___awmod                                              7     3      4     613
                                              2 COMMON     7     3      4
 ---------------------------------------------------------------------------------
 (2) ___awdiv                                              9     5      4     625
                                              2 COMMON     5     1      4
                                              0 BANK0      4     4      0
 ---------------------------------------------------------------------------------
 (1) _check_password                                       8     6      2   13767
                                              0 BANK0      8     6      2
                         _clcd_print
                         _clcd_putch
                         _read_24c02
                 _read_matrix_keypad
 ---------------------------------------------------------------------------------
 (1) _read_matrix_keypad                                   3     3      0     294
                                              4 COMMON     3     3      0
                        _scan_keypad
 ---------------------------------------------------------------------------------
 (2) _scan_keypad                                          2     2      0     136
                                              2 COMMON     2     2      0
 ---------------------------------------------------------------------------------
 (1) _read_24c02                                           3     3      0     161
                                              5 COMMON     3     3      0
                           _i2c_read
                      _i2c_rep_start
                          _i2c_start
                           _i2c_stop
                          _i2c_write
 ---------------------------------------------------------------------------------
 (3) _i2c_write                                            1     1      0      31
                                              2 COMMON     1     1      0
                  _i2c_wait_for_idle
 ---------------------------------------------------------------------------------
 (2) _i2c_rep_start                                        0     0      0       0
                          _i2c_start
                           _i2c_stop
 ---------------------------------------------------------------------------------
 (3) _i2c_stop                                             0     0      0       0
                  _i2c_wait_for_idle
 ---------------------------------------------------------------------------------
 (3) _i2c_start                                            0     0      0       0
                  _i2c_wait_for_idle
 ---------------------------------------------------------------------------------
 (2) _i2c_read                                             3     3      0      65
                                              2 COMMON     3     3      0
                  _i2c_wait_for_idle
 ---------------------------------------------------------------------------------
 (4) _i2c_wait_for_idle                                    0     0      0       0
 ---------------------------------------------------------------------------------
 (1) _clcd_putch                                           2     1      1    1865
                                              6 COMMON     2     1      1
                         _clcd_write
 ---------------------------------------------------------------------------------
 (2) _clcd_print                                           3     0      3   11079
                                              6 COMMON     3     0      3
                         _clcd_write
 ---------------------------------------------------------------------------------
 (4) _clcd_write                                           4     3      1    1083
                                              2 COMMON     4     3      1
 ---------------------------------------------------------------------------------
 (1) ___xxtofl                                            14    10      4     566
                                              0 BANK0     14    10      4
                           _read_adc (ARG)
 ---------------------------------------------------------------------------------
 (1) ___fltol                                             11     7      4     427
                                              8 COMMON     2     2      0
                                             66 BANK0      9     5      4
                            ___fldiv (ARG)
                            ___flmul (ARG)
                           ___xxtofl (ARG)
                           _read_adc (ARG)
 ---------------------------------------------------------------------------------
 (1) ___flmul                                             26    18      8    3353
                                             40 BANK0     26    18      8
                          __Umul8_16
                            ___fldiv (ARG)
                           ___xxtofl (ARG)
                           _read_adc (ARG)
 ---------------------------------------------------------------------------------
 (2) __Umul8_16                                            9     7      2     980
                                              2 COMMON     4     2      2
                                              0 BANK0      5     5      0
 ---------------------------------------------------------------------------------
 (1) ___fldiv                                             26    18      8    1863
                                             14 BANK0     26    18      8
                           ___xxtofl (ARG)
                           _read_adc (ARG)
 ---------------------------------------------------------------------------------
 Estimated maximum stack depth 4
 ---------------------------------------------------------------------------------
 (Depth) Function   	        Calls       Base Space   Used Autos Params    Refs
 ---------------------------------------------------------------------------------
 (7) _isr                                                  2     2      0       0
                                              0 COMMON     2     2      0
 ---------------------------------------------------------------------------------
 Estimated maximum stack depth 7
 ---------------------------------------------------------------------------------

 Call Graph Graphs:

 _main (ROOT)
   ___fldiv
     ___xxtofl (ARG)
       _read_adc (ARG)
     _read_adc (ARG)
   ___flmul
     __Umul8_16
     ___fldiv (ARG)
     ___xxtofl (ARG)
     _read_adc (ARG)
   ___fltol
     ___fldiv (ARG)
     ___flmul (ARG)
     ___xxtofl (ARG)
     _read_adc (ARG)
   ___xxtofl
   _check_password
     _clcd_print
       _clcd_write
     _clcd_putch
       _clcd_write
     _read_24c02
       _i2c_read
         _i2c_wait_for_idle
       _i2c_rep_start
         _i2c_start
           _i2c_wait_for_idle
         _i2c_stop
           _i2c_wait_for_idle
       _i2c_start
       _i2c_stop
       _i2c_write
         _i2c_wait_for_idle
     _read_matrix_keypad
       _scan_keypad
   _clcd_print
   _clcd_putch
   _display
     ___awdiv
     ___awmod
     _clcd_print
   _display_time
     _clcd_print
   _get_time
     _read_ds1307
       _i2c_read
       _i2c_rep_start
       _i2c_start
       _i2c_stop
       _i2c_write
   _init_config
     _init_adc
     _init_clcd
       _init_display_controller
         _clcd_write
     _init_ds1307
       _read_ds1307
       _write_ds1307
         _i2c_start
         _i2c_stop
         _i2c_write
     _init_i2c
       ___lldiv
     _init_matrix_keypad
     _init_timer0
     _init_uart
       ___lldiv
   _read_24c02
   _read_adc
   _read_matrix_keypad
   _uart_puts
     _uart_putchar
   _write_24c02
     _i2c_start
     _i2c_stop
     _i2c_write
   _write_ds1307
   _write_external_eeprom
     _write_24c02

 _isr (ROOT)

 Address spaces:
Name               Size   Autos  Total    Cost      Usage
BANK3               60     2E      5D       9       96.9%
BITBANK3            60      0       0       8        0.0%
SFR3                 0      0       0       4        0.0%
BITSFR3              0      0       0       4        0.0%
BANK2               60      0       0      11        0.0%
BITBANK2            60      0       0      10        0.0%
SFR2                 0      0       0       5        0.0%
BITSFR2              0      0       0       5        0.0%
BANK1               50     50      50       7      100.0%
BITBANK1            50      0       0       6        0.0%
SFR1                 0      0       0       2        0.0%
BITSFR1              0      0       0       2        0.0%
BANK0               50     50      50       5      100.0%
BITBANK0            50      0       0       4        0.0%
SFR0                 0      0       0       1        0.0%
BITSFR0              0      0       0       1        0.0%
COMMON               E      A       C       1       85.7%
BITCOMMON            E      0       0       0        0.0%
CODE                 0      0       0       0        0.0%
DATA                 0      0     109      12        0.0%
ABS                  0      0     109       3        0.0%
NULL                 0      0       0       0        0.0%
STACK                0      0       0       2        0.0%
EEDATA             100      0       0       0        0.0%


Microchip Technology PIC Macro Assembler V2.36 build 20220127204148 
Symbol Table                                                                                   Tue May  9 14:14:29 2023

                   ___fldiv@aexp 0047                     ___fldiv@bexp 0046                                pc 0002  
                   ___fldiv@sign 003F            _write_external_eeprom 1733                   clcd_print@addr 0078  
                             l13 1FA3                               l16 1E50                               l42 1E61  
                             l45 1E6F                               l62 07FD                               l71 1DE8  
                             l39 1D72                               l65 1367                               l68 1DAF  
                             l77 1FFF                               l94 1E14                               l97 1FD0  
                             _GO 00FA                     ___awdiv@sign 0021                               fsr 0004  
            __Umul8_16@word_mpld 0022               _init_matrix_keypad 1DC8                              l100 1E32  
                            l210 12AB                              l132 1DBB                              l141 1D99  
                            l213 1539                              l135 1DC7                              l231 15CA  
                            l144 1D84                              l152 1DA4                              l400 160D  
                            l216 1F24                              l401 1615                              l129 1222  
                            l138 1D7B                              l410 164B                              l402 1621  
                            l306 0C0F                              l147 1EAF                              l411 1645  
                            l403 161B                              l219 125B                              l148 1EB2  
                            l236 17FF                              l149 1EB4                              l271 0973  
                            l416 1661                              l408 1637                              l417 1669  
                            l409 163F                              l442 1D8E                              l419 166F  
                            l427 1F76                              l283 0A43                              l470 1DB9  
                            l294 0B5C                              l391 15E3                              l471 1DBA  
                            l392 15EB                              l393 1676                              l394 15F7  
                            l386 1DD7                              l395 15F1                              l459 11F0  
                            l716 1438                              l469 1DB5                              l477 1EFD  
                            l912 0647                              l729 1304                              l914 07C7  
                            l756 149F                              l749 14B4                              l934 07AB  
                            l759 14B4                              l599 13CF                              l936 07BB  
                            l928 0739                              l952 0391                              l971 1F3B  
                            l964 0385                              l973 1F4D                              l958 02FD  
                            _GIE 005F                              l996 169B                              l998 1732  
                            _RB0 0030                              _RB1 0031                              _RB2 0032  
                            _RD0 0040                              _RD1 0041                              _RD2 0042  
                            _RE1 0049                              _RD3 0043                              _RE2 004A  
                            _PEN 048A                              _SEN 0488                              _PSA 040B  
                  ?_display_time 0070                              _isr 1E70                   clcd_putch@addr 0076  
                            fsr0 0004                   clcd_putch@data 0077                              indf 0000  
     check_password@org_password 0024                     ___awmod@sign 0078                     ___flmul@aexp 0056  
                   ___flmul@bexp 005B                     ___flmul@sign 0055                     ___flmul@temp 0060  
                   ___flmul@prod 005C              ?_init_matrix_keypad 0070                     ___fltol@exp1 0079  
                           l1010 1708                             l1002 16E0                   _check_password 153A  
                           l1009 16FC                             l4001 1324                             l4011 1346  
                           l4003 1329                             l4021 1FCF                             l4013 134B  
                           l4005 1330                             l4031 15D5                             l4015 135B  
                           l4007 1333                             l4105 1673                             l4033 15E9  
                           l4201 1F57                             l4017 1362                             l4009 133A  
                           l4025 1E16                             l4121 138E                             l4113 1368  
                           l5001 0989                             l4051 15FF                             l4027 15CB  
                           l4211 1F63                             l4203 1F5C                             l4019 1FA5  
                           l4131 13C1                             l4123 1397                             l4115 137A  
                           l5011 09DE                             l5003 098E                             l4109 1675  
                           l4053 1613                             l4045 15F5                             l4029 15D1  
                           l4213 1F6A                             l4221 1F6C                             l4301 12E9  
                           l4125 13A9                             l4117 137D                             l4133 13C7  
                           l5101 0C35                             l5021 0A6B                             l5013 09FD  
                           l5005 0997                             l4071 1629                             l4039 15EF  
                           l4223 1F71                             l4231 13D0                             l4303 12F0  
                           l4151 1DA9                             l4127 13B7                             l4119 138A  
                           l4143 1E34                             l5111 0C5E                             l5023 0A8A  
                           l5015 0A1C                             l5007 09B6                             l4321 1F44  
                           l4313 1F28                             l4161 1FE9                             l4137 1F78  
                           l4073 163D                             l4065 161F                             l4049 15FB  
                           l4225 1F75                             l4209 1F5E                             l4401 1597  
                           l4241 13E2                             l4233 13D3                             l4305 12F6  
                           l4145 1D6C                             l4153 1DAA                             l4129 13B8  
                           l5201 0E44                             l5121 0CC1                             l5113 0C64  
                           l5105 0C3C                             l5041 0B21                             l5025 0AA9  
                           l5017 0A25                             l5009 09D5                             l5033 0AF0  
                           l4323 1F49                             l4315 1F2A                             l4163 1FEF  
                           l4155 1DD9                             l4139 1FA2                             l4091 1653  
                           l4059 1619                             l4411 15BD                             l4251 13F6  
                           l4243 13E7                             l4235 13D7                             l4307 12FB  
                           l4147 1DA5                             l4171 11F1                             l4331 1E65  
                           l5211 0E88                             l5203 0E4D                             l5131 0CEC  
                           l5123 0CCE                             l5115 0CAC                             l5107 0C3F  
                           l5043 0B25                             l5027 0AB2                             l5019 0A62  
                           l5035 0B06                             l4317 1F31                             l4501 14A9  
                           l4157 1FD1                             l4093 1667                             l4085 1649  
                           l4069 1625                             l4413 15C3                             l4405 159C  
                           l4261 141C                             l4253 13FD                             l4245 13EB  
                           l4237 13DC                             l4309 1300                             l4341 128D  
                           l4149 1DA8                             l4165 1DFC                             l4173 11F4  
                           l4181 1DD1                             l4229 1DB1                             l4421 1733  
                           l5221 0EA7                             l5213 0E97                             l5205 0E5D  
                           l5141 0D1A                             l5133 0CF2                             l5125 0CD4  
                           l5117 0CB2                             l5109 0C4E                             l5061 0B6C  
                           l5053 0B3D                             l5037 0B0C                             l5029 0AD1  
                           l4511 05FD                             l4503 05EB                             l4319 1F35  
                           l4159 1FD9                             l4079 1643                             l4407 15A5  
                           l4271 1434                             l4263 141D                             l4255 1401  
                           l4247 13ED                             l4239 13DE                             l4343 129B  
                           l4335 125C                             l4351 14DF                             l4167 1E05  
                           l4175 121F                             l4183 1DD4                             l4191 11C5  
                           l4327 1E52                             l4423 1740                             l5231 0EEC  
                           l5215 0E9B                             l5207 0E6D                             l5143 0D20  
                           l5151 0D4C                             l5127 0CE2                             l5119 0CB4  
                           l5071 0BA6                             l5063 0B70                             l5055 0B4C  
                           l5047 0B31                             l5039 0B12                             l4601 0719  
                           l4513 0602                             l4521 0612                             l4505 05F2  
                           l4089 164F                             l4417 15C8                             l4409 15B1  
                           l4265 1424                             l4257 1405                             l4249 13F3  
                           l4281 12B6                             l4345 129E                             l4337 1262  
                           l4353 14F3                             l4361 1EFF                             l4169 1E0A  
                           l4185 1DD5                             l4177 1DC8                             l4193 1D85  
                           l4329 1E60                             l4441 177B                             l4433 175B  
                           l4425 1748                             l5233 0EF0                             l5225 0EB1  
                           l5209 0E79                             l5145 0D24                             l5137 0D00  
                           l5129 0CE6                             l5081 0BDD                             l5073 0BB5  
                           l5065 0B7D                             l5049 0B33                             l5057 0B5D  
                           l4603 071D                             l4531 062A                             l4523 061A  
                           l4515 0607                             l4507 05F8                             l4099 166D  
                           l4259 1416                             l4267 142A                             l4291 12CA  
                           l4283 12B8                             l4275 12AC                             l4339 127A  
                           l4355 14FF                             l4347 14B6                             l4187 1DD6  
                           l4179 1DD0                             l4195 1D89                             l4371 125A  
                           l4363 1223                             l4451 17C1                             l4443 1785  
                           l4435 1769                             l4427 175A                             l5251 0F30  
                           l5243 0F06                             l5227 0EC0                             l5219 0EA5  
                           l5171 0DC2                             l5155 0D56                             l5163 0D86  
                           l5147 0D30                             l5139 0D06                             l5091 0BFD  
                           l5083 0BE3                             l5075 0BC5                             l5067 0B8A  
                           l5059 0B61                             l4621 076E                             l4613 073E  
                           l4605 071E                             l4533 062F                             l4541 063F  
                           l4525 061F                             l4517 060F                             l4509 05FC  
                           l4701 013C                             l4381 1555                             l4373 153A  
                           l4269 142F                             l4293 12D1                             l4285 12BC  
                           l4277 12AD                             l4357 1529                             l4349 14D7  
                           l4197 1D8D                             l4189 11C1                             l4365 1241  
                           l4461 1ED9                             l4453 17C9                             l4445 178D  
                           l4437 1771                             l5261 0F5E                             l5253 0F3F  
                           l5245 0F15                             l5237 0EFA                             l5181 0DF5  
                           l5173 0DDE                             l5229 0ED0                             l5157 0D66  
                           l5165 0D98                             l5149 0D3E                             l5093 0C0D  
                           l5085 0BF1                             l5077 0BCB                             l5069 0B90  
                           l4631 07A2                             l4615 0743                             l4623 0774  
                           l4607 0722                             l4543 064F                             l4551 0668  
                           l4535 0634                             l4527 0625                             l4519 0610  
                           l4711 019E                             l4703 0158                             l4199 1F4F  
                           l4391 156E                             l4383 1556                             l4375 1545  
                           l4295 12D5                             l4287 12C1                             l4279 12B1  
                           l4359 152A                             l4367 1246                             l4463 1EE7  
                           l4455 17DB                             l4447 179F                             l4439 1775  
                           l5271 0F90                             l5255 0F52                             l5239 0EFC  
                           l5191 0E19                             l5175 0DE1                             l5247 0F25  
                           l5159 0D76                             l5167 0D9F                             l5095 0C10  
                           l5087 0BF5                             l5079 0BDA                             l4633 07AA  
                           l4625 0781                             l4617 0751                             l4609 0736  
                           l4561 0690                             l4553 066D                             l4545 065B  
                           l4537 063C                             l4529 0629                             l4721 022E  
                           l4713 01BB                             l4705 0161                             l4481 146F  
                           l4473 144F                             l4801 16BE                             l4393 1579  
                           l4385 1561                             l4377 1552                             l4297 12D9  
                           l4289 12C7                             l4369 1255                             l4465 1EED  
                           l4457 17E9                             l4449 17A7                             l5281 0FBC  
                           l5273 0F94                             l5265 0F68                             l5249 0F2C  
                           l5193 0E22                             l5185 0DFE                             l5177 0DE7  
                           l5169 0DA6                             l5089 0BF7                             l4635 07B1  
                           l4627 078F                             l4619 0755                             l4571 06B9  
                           l4563 0698                             l4547 065F                             l4539 063D  
                           l4731 02C0                             l4723 025B                             l4715 01D4  
                           l4707 0171                             l4651 0042                             l4483 1473  
                           l4491 148D                             l4475 1464                             l4467 1439  
                           l4811 16F2                             l4803 16C5                             l4395 1581  
                           l4379 1555                             l4299 12E3                             l4459 1ED8  
                           l5291 0FDD                             l5275 0F97                             l5267 0F77  
                           l5259 0F5C                             l5195 0E28                             l5187 0E06  
                           l5179 0DEA                             l5099 0C17                             l4637 07B5  
                           l4629 079E                             l4581 06DA                             l4573 06BD  
                           l4565 06A0                             l4557 0676                             l4733 02C9  
                           l4741 02DD                             l4725 0281                             l4717 01F1  
                           l4709 018E                             l4661 0057                             l4653 0043  
                           l4645 0031                             l4477 1465                             l4469 1446  
                           l4821 1725                             l4813 16F6                             l4805 16C9  
                           l3941 1DC1                             l4397 1586                             l4389 1568  
                           l5285 0FC3                             l5293 0FE5                             l5269 0F87  
                           l5197 0E37                             l5189 0E15                             l4901 053E  
                           l4639 07B7                             l4591 06FC                             l4583 06E8  
                           l4575 06BE                             l4567 06A2                             l4559 0688  
                           l4743 02E1                             l4735 02CD                             l4727 02A9  
                           l4719 021E                             l4671 006F                             l4663 005F  
                           l4655 0048                             l4647 0038                             l4479 146D  
                           l4823 1729                             l4815 1700                             l4807 16D7  
                           l3943 1D73                             l3951 1D9B                             l4399 158C  
                           l5287 0FD3                             l5279 0F9E                             l5367 0AF5  
                           l4911 0561                             l4903 0546                             l4593 0705  
                           l4569 06A7                             l4577 06C7                             l4585 06EC  
                           l4761 0332                             l4753 0302                             l4745 02E2  
                           l4737 02CE                             l4729 02B2                             l4681 008B  
                           l4673 0074                             l4665 0064                             l4657 004D  
                           l4649 003E                             l4497 1494                             l4489 147B  
                           l4825 172A                             l4817 170A                             l4809 16E7  
                           l3961 1E93                             l3945 1D78                             l3953 1DA0  
                           l5289 0FD4                             l5369 0D8D                             l4921 05C0  
                           l4913 0570                             l4905 0553                             l4841 0397  
                           l4595 0709                             l4587 06F2                             l4579 06D9  
                           l4771 0369                             l4755 0307                             l4763 0338  
                           l4747 02E6                             l4739 02D7                             l4691 00AE  
                           l4683 0090                             l4675 0079                             l4667 006A  
                           l4659 0055                             l4499 14A4                             l4819 1720  
                           l3939 1DBB                             l3971 1EB3                             l3963 1E98  
                           l3947 1D7C                             l3955 1DA4                             l4931 0804  
                           l4923 05CD                             l4915 0572                             l4907 0555  
                           l4851 03D8                             l4843 03AF                             l4597 070A  
                           l4589 06FA                             l4781 0389                             l4773 036B  
                           l4765 0345                             l4757 0315                             l4749 02FA  
                           l4693 00BB                             l4685 0095                             l4677 0081  
                           l4669 006E                             l3981 07D7                             l3965 1EA0  
                           l3949 1D81                             l4941 0871                             l4933 081B  
                           l4917 0589                             l4909 055B                             l4925 05CF  
                           l4861 03F5                             l4853 03DC                             l4845 03AF  
                           l4599 0713                             l4775 0379                             l4767 0350  
                           l4759 0319                             l4695 00D8                             l4679 0083  
                           l4791 1693                             l3991 07F1                             l3983 07DC  
                           l3975 07C9                             l3967 1EA6                             l3959 1D8F  
                           l4943 0879                             l4935 0852                             l4927 05D5  
                           l4919 05B8                             l4871 0489                             l4863 0402  
                           l4855 03E0                             l4847 03B6                             l4839 0392  
                           l4777 037D                             l4769 035F                             l4697 00F4  
                           l4689 009E                             l4793 16A3                             l4785 167A  
                           l3993 07F4                             l3985 07DF                             l3977 07D3  
                           l3969 1EAB                             l4961 08CB                             l4953 08B0  
                           l4945 0886                             l4937 085F                             l4929 0800  
                           l4881 04CB                             l4873 048F                             l4865 040F  
                           l4857 03E2                             l4849 03D4                             _ADFM 04FF  
                           l4779 037E                             l4699 0120                             l4787 167F  
                           l3987 07EB                             l3979 07D6                             l3995 1305  
                           l4971 08EB                             l4955 08B2                             l4963 08DA  
                           l4947 08A2                             l4891 04EB                             l4939 0862  
                           l4883 04D3                             l4875 0497                             l4867 0474  
                           l4859 03E6                             ?_isr 0070                             l4797 16AC  
                           l4789 1683                             l3989 07EC                             l3997 130D  
                           l4981 0930                             l4973 08F8                             l4949 08A6  
                           l4965 08DF                             l4893 04FA                             l4885 04D7  
                           l4877 04AD                             l4869 0483                             l4799 16B1  
                           l3999 1314                             l4991 095E                             l4983 093F  
                           l4975 0905                             l4967 08E5                             l4959 08BC  
                           l4895 0501                             l4879 04BC                             l4887 04DB  
                           l4993 0964                             l4977 090B                             l4985 0946  
                           l4969 08E7                             l4897 0510                             l4889 04E3  
                           l4995 0971                             l4987 094C                             l4979 0921  
                           l4899 0516                             l4989 095B                             l4997 0975  
                           l4999 097B                             _ADON 00F8                             STR_1 1028  
                           STR_2 11A1                             STR_3 11A4                             STR_4 11A7  
                           STR_5 11AA                             STR_6 11AD                             STR_7 11B6  
                           STR_8 11B0                             STR_9 1138                             _CREN 00C4  
                           _T0CS 040D                             u5000 15EF                             u5001 15EE  
                           u5010 15F5                             u5011 15F4                             u5100 1661  
                           u5020 160D                             u5101 1660                             u5021 160C  
                           u5110 1667                             u5030 1613                             u5111 1666  
                           u5031 1612                             u6000 0781                             u5120 166D  
                           u5040 1619                             u5200 13C7                             u6001 0780  
                           u5121 166C                             u5041 1618                             u5201 13C6  
                           u6010 079E                             u5210 1FFF                             u5130 1673  
                           u5050 161F                             u6011 079D                             u5211 1FFE  
                           u5131 1672                             u5051 161E                             u6020 07B5  
                           u6100 0095                             u5060 1637                             u5300 13E2  
                           u5140 137A                             u5220 1202                             u6021 07B4  
                           u6005 077D                             u6101 0094                             u5061 1636  
                           u5301 13E1                             u5141 1379                             u6030 0042  
                           u5070 163D                             u5310 13F3                             u5230 11D3  
                           u6015 079A                             u6111 00E6                             u6031 0041  
                           u5071 163C                             u5311 13F2                             u6112 00ED  
                           u6040 0048                             u5080 1643                             u5240 1F5C  
                           u5400 12BC                             u5160 138E                             u7000 0BCB  
                           u6201 0210                             u6121 0102                             u6113 00F4  
                           u6041 0047                             u5081 1642                             u5241 1F5B  
                           u5401 12BB                             u5161 138D                             u5225 11FD  
                           u7001 0BCA                             u6202 0217                             u6122 0109  
                           u6050 004D                             u5090 1649                             u5250 1F63  
                           u5330 1405                             u5410 12C7                             u7010 0BDA  
                           u6211 023D                             u6203 021E                             u6131 012E  
                           u6123 0110                             u6051 004C                             u5091 1648  
                           u5251 1F62                             u5331 1404                             u5411 12C6  
                           u5155 137F                             u5235 11CE                             u7011 0BD9  
                           u5500 1F49                             u6300 02E1                             u6220 0267  
                           u6212 0244                             u6132 0135                             u6060 006E  
                           u5260 1F6A                             u5180 13A9                             u7100 0CEC  
                           u7020 0BE3                             u5501 1F48                             u6301 02E0  
                           u6213 024B                             u6141 014A                             u6133 013C  
                           u6061 006D                             u5261 1F69                             u5325 13F7  
                           u5181 13A8                             u7101 0CEB                             u7021 0BE2  
                           u6310 02E6                             u6142 0151                             u6070 0074  
                           u5270 1F71                             u5350 1416                             u5430 12D9  
                           u7110 0CFF                             u7030 0BF1                             u6311 02E5  
                           u6231 0273                             u6143 0158                             u6071 0073  
                           u5271 1F70                             u5351 1415                             u5431 12D8  
                           u5175 1390                             u7111 0CFE                             u7031 0BF0  
                           u6320 02FA                             u6240 028F                             u6232 027A  
                           u6080 0079                             u6400 167F                             u5600 15A5  
                           u5440 12E3                             u5520 1E65                             u5280 1DB9  
                           u7200 0E4D                             u7120 0D06                             u7040 0BFD  
                           u6321 02F9                             u6233 0281                             u6225 0262  
                           u6161 0180                             u6081 0078                             u6401 167E  
                           u5601 15A4                             u5345 1406                             u5441 12E2  
                           u5425 12CB                             u5185 13A5                             u5521 1E64  
                           u5281 1DB8                             u7201 0E4C                             u7121 0D05  
                           u7041 0BFC                             u6330 0301                             u6162 0187  
                           u6090 0090                             u6410 1683                             u5610 15C3  
                           u5370 142A                             u5290 13D7                             u5530 129B  
                           u7210 0EA4                             u7130 0D1A                             u7050 0C0D  
                           u6331 0300                             u6251 029B                             u6171 01AD  
                           u6163 018E                             u6155 015A                             u6091 008F  
                           u6411 1682                             u5611 15C2                             u5371 1429  
                           u5355 1412                             u5291 13D6                             u5531 129A  
                           u5195 13B9                             u5515 1E55                             u7211 0EA3  
                           u7131 0D19                             u7115 0CFB                             u7051 0C0C  
                           u6340 0307                             u6252 02A2                             u6172 01B4  
                           u5700 1493                             u6500 1700                             u6420 16A3  
                           u5380 142F                             u5460 12F6                             u5620 177B  
                           u7300 0F5B                             u7220 0EB0                             u7140 0D55  
                           u7060 0C16                             _RCEN 048B                             _RCIF 0065  
                           u6341 0306                             u6253 02A9                             u6245 028A  
                           u6173 01BB                             u5701 1492                             u6501 16FF  
                           u6421 16A2                             u5381 142E                             u5365 141E  
                           u5461 12F5                             u5445 12DF                             u5621 177A  
                           u7301 0F5A                             u7221 0EAF                             u7141 0D54  
                           u7061 0C15                             u6350 0319                             u6510 1715  
                           u5470 12FB                             u5390 12B1                             u5630 1EFD  
                           u7310 0F67                             u7230 0EC0                             u7150 0DA6  
                           u7070 0C64                             u6351 0318                             u6191 01E3  
                           u5471 12FA                             u5455 12EA                             u5391 12B0  
                           u5631 1EFC                             u7311 0F66                             u7231 0EBF  
                           u7151 0DA5                             u7071 0C63                             u7055 0C09  
                           u5800 064F                             u5480 1F35                             u6360 0328  
                           u6280 02CD                             u6192 01EA                             u5720 14A4  
                           u5640 1446                             u6520 1725                             u6440 16C4  
                           u4920 1DC1                             u7320 0F77                             u7240 0ECF  
                           u7160 0DC2                             u7080 0CD4                             u6600 04E3  
                           u5801 064E                             u5481 1F34                             u6281 02CC  
                           u6265 02AB                             u6193 01F1                             u6185 01BD  
                           u5721 14A3                             u5641 1445                             u6521 1724  
                           u6441 16C3                             u4921 1DC0                             u5545 14BE  
                           u7321 0F76                             u7241 0ECE                             u7161 0DC1  
                           u7081 0CD3                             u6601 04E0                             u5810 066D  
                           u6370 0345                             u5730 14A9                             u5650 145D  
                           u6530 1729                             u4930 1DC7                             u5570 1567  
                           u7330 0F86                             u7250 0EF9                             u7170 0DFD  
                           u7090 0CE2                             u6610 04EB                             u5811 066C  
                           u6371 0344                             u6275 02C2                             u5731 14A8  
                           u5715 1496                             u6531 1728                             u6515 1710  
                           u6435 16B6                             u4931 1DC6                             u5571 1566  
                           u5555 14E6                             u7331 0F85                             u7251 0EF8  
                           u7171 0DFC                             u7091 0CE1                             u6611 04EA  
                           u5820 06A7                             u5740 05FC                             u6380 035F  
                           u5660 1473                             u6460 16E6                             u4940 1EAB  
                           u5580 156E                             u7340 0F9D                             u7260 0F05  
                           u7180 0E06                             u6700 0879                             u6620 0501  
                           u5821 06A6                             u5741 05FB                             u6381 035E  
                           u6365 0323                             u5661 1472                             u6461 16E5  
                           u4941 1EAA                             u5581 156D                             u5565 150F  
                           u7341 0F9C                             u7261 0F04                             u7181 0E05  
                           u6701 0878                             u6621 0500                             u5910 0709  
                           u5750 0602                             u6390 037D                             u5670 147A  
                           u4950 07D0                             u5590 158C                             u7350 0FFC  
                           u7270 0F15                             u7190 0E28                             u6710 0886  
                           u6630 0553                             u6550 03A1                             u5911 0708  
                           u5751 0601                             u5495 1F3C                             u6391 037C  
                           u6375 0341                             u6295 02D0                             u5671 1479  
                           u5655 1458                             u6455 16D8                             u4951 07CC  
                           u5591 158B                             u7407 1348                             u7351 0FFB  
                           u7271 0F14                             u7191 0E27                             u6711 0885  
                           u6631 0552                             u5760 0607                             u6480 16F6  
                           u7280 0F24                             u6800 095B                             u6720 08AF  
                           u6640 055B                             u6560 03C0                             u5905 06FE  
                           u5761 0606                             u6385 035B                             u6481 16F5  
                           u7417 1356                             u7281 0F23                             u6801 095A  
                           u6721 08AE                             u6641 055A                             u5930 071D  
                           u5850 06BD                             u5770 0629                             u5690 148C  
                           u6490 16FC                             u7290 0F2C                             u6810 0964  
                           u6730 08BB                             u6650 0570                             u6570 0497  
                           u5931 071C                             u5851 06BC                             u5835 06A9  
                           u5771 0628                             u5691 148B                             u6491 16FB  
                           u6475 16EB                             u7427 1364                             u7355 0FF8  
                           u7291 0F2B                             u6811 0963                             u6731 08BA  
                           u6651 056F                             u6571 0496                             u5940 0722  
                           u5780 062F                             u4964 07D3                             u4980 15E3  
                           u6900 0B0C                             u6820 0971                             u6740 08CB  
                           u6660 05CD                             u6580 049E                             u5941 0721  
                           u5925 070C                             u5845 06B2                             u5781 062E  
                           u5685 147C                             u7437 07D9                             u4981 15E2  
                           u6901 0B0B                             u6821 0970                             u6741 08CA  
                           u6661 05CC                             u6581 049C                             u5950 0736  
                           u5870 06D9                             u5790 0634                             u4990 15E9  
                           u6910 0B12                             u6830 097B                             u6750 08DA  
                           u6670 05D5                             u6590 049F                             u5951 0735  
                           u5871 06D8                             u5791 0633                             u7447 07EE  
                           u4975 07E3                             u4991 15E8                             u7367 1309  
                           u6911 0B11                             u6831 097A                             u6751 08D9  
                           u6671 05D4                             u5960 073D                             u5880 06F2  
                           u6920 0B2E                             u6840 0989                             u6760 090B  
                           u6680 0800                             u5961 073C                             u5881 06F1  
                           u5865 06C0                             u7457 07F8                             u7377 1318  
                           u6921 0B2D                             u6841 0988                             u6761 090A  
                           u6681 05E8                             u5970 0743                             u5890 06FA  
                           u6930 0B3C                             u6850 0997                             u6770 0912  
                           u6690 085F                             u5971 0742                             u5891 06F9  
                           u5875 06D5                             u7387 1326                             u6931 0B3B  
                           u6851 0996                             u6771 0910                             u6691 085E  
                           u5980 0755                             u6940 0B4C                             u6860 09DE  
                           u6780 0913                             u5981 0754                             u7397 133C  
                           u6941 0B4B                             u6861 09DD                             u5990 0764  
                           u6950 0B5B                             u6870 0A25                             u6790 094C  
                           u6951 0B5A                             u6871 0A24                             u6791 094B  
                           u6960 0B6C                             u6880 0A6B                             u6961 0B6B  
                           u6881 0A6A                             u6970 0B90                             u6890 0AB2  
                           u5995 075F                             u6971 0B8F                             u6891 0AB1  
                           u6980 0B97                             u6981 0B95                             u6990 0B98  
                           _TMR0 0001                             _SPEN 00C7                             _TXIF 0064  
                           _R_nW 04A2                             _buff 01EA                             _main 0392  
                           _time 01E1                             btemp 007E                main@key_state_301 006F  
                           start 000C                  ___fldiv@new_exp 0040             ??_init_matrix_keypad 0072  
                 clcd_write@byte 0075                   clcd_write@mode 0072                    _i2c_rep_start 1D8F  
                    _write_24c02 1E33                     main@gear_idx 01B7                            ??_isr 0070  
                   ?_init_ds1307 0070            main@adc_reg_val_speed 00E8                    ___fltol@sign1 0078  
                          ?_main 0070                     ?_read_ds1307 0070                            _ACKEN 048C  
                          _ACKDT 048D                   ??_display_time 0020                  __end_of___fldiv 07C8  
                __end_of___awdiv 1439                            STR_10 1028                            STR_11 1028  
                          STR_12 11B3                            STR_20 1039                            STR_13 119E  
                          STR_21 106C                            STR_22 1039                            STR_30 104A  
                          STR_14 11B9                            STR_31 118D                            STR_15 1105  
                          STR_23 107D                            STR_16 10F4                            STR_32 108E  
                          STR_24 104A                            STR_40 1016                            STR_41 1028  
                          STR_17 1028                            STR_25 117C                            STR_33 1116  
                          STR_42 1028                            STR_18 1028                            STR_50 116B  
                          STR_34 109F                            STR_26 105B                            STR_51 1028  
                          STR_19 1028                            STR_35 1116                            STR_27 117C  
                          STR_43 1149                            STR_28 104A                            STR_36 108E  
                          STR_44 1138                            STR_52 10D2                  __end_of___awmod 1305  
                          STR_45 1028                            STR_37 1116                            STR_29 117C  
                          STR_53 10C1                            STR_38 108E                            STR_54 10F4  
                          STR_46 11BC                            STR_55 1028                            STR_47 11BC  
                          STR_39 1127                            STR_48 11BC                            STR_56 10B0  
                          STR_49 115A                            STR_57 10E3                            STR_58 1000  
                __end_of___flmul 0392                  __end_of___fltol 14B5                   read_24c02@addr 0076  
                __end_of___lldiv 13D0                      i2c_read@ack 0073                   read_24c02@data 0077  
                ___awdiv@divisor 0072                            i1l165 1E8B                     ?_init_config 0070  
                ___awdiv@counter 0020                            _RCREG 001A                            _SPBRG 0099  
                          _PORTD 0008                            _SSPM3 00A3                            _TRISB 0086  
                          _TRISD 0088                            _SSPEN 00A5                            _TXREG 0019  
                   ?_init_timer0 0070        write_external_eeprom@addr 0022                            _nDONE 00FA  
      write_external_eeprom@gear 0024                            _nRBPU 040F           __end_of_check_password 15CB  
                __end_of_display 12AC               _read_matrix_keypad 1F4E                            main@i 00EC  
                          main@j 00EE                            pclath 000A              ?_read_matrix_keypad 0070  
                          status 0003                            wtemp0 007E                     ?_scan_keypad 0070  
               init_ds1307@dummy 0079                  __initialization 000F                   ?_i2c_rep_start 0070  
         ?_write_external_eeprom 0020                     __end_of_main 1000      check_password@temp_password 0026  
               __end_of_i2c_read 1EB5                 __end_of_i2c_stop 1D85             ??_read_matrix_keypad 0074  
                  main@gear_flag 00EA                           ??_main 006B                    main@clock_reg 01AA  
                ?_check_password 0020                           _ADCON0 001F                           _ADRESH 001E  
                         _ADRESL 009E                 ___awdiv@dividend 0074                     i2c_read@data 0074  
                         i1l1971 1E74                           i1l1973 1E88                           i1l1975 1E8A  
                         i1l1969 1E70                           u164_20 1E74                           u164_21 1E73  
                         u165_20 1E88                           u165_21 1E87                     _write_ds1307 1E15  
                         _TMR0IE 005D                           _TMR0IF 005A                           _SSPADD 0093  
                         _TRISE1 0449                    main@event_idx 01BB                           _TRISE2 044A  
                         _SSPBUF 0013                 __end_of___xxtofl 1733                    main@key_level 01AD  
                  main@key_state 01BD                    main@menu_flag 01B2                 __end_of_get_time 1F25  
        _init_display_controller 1305                        ??___fldiv 0036                        ??___awdiv 0076  
                      ??___awmod 0076                        ??___flmul 0050                        ??___fltol 0066  
                      ??___lldiv 0020                 __end_of_init_i2c 1223                 __end_of_init_adc 1D73  
               __end_of_read_adc 1E70                 ___awdiv@quotient 0022                  ___awmod@divisor 0072  
                ___awmod@counter 0077                        ??_display 0079         display@adc_reg_val_speed 0024  
                         saved_w 007E                     ___xxtofl@arg 002A                     ___xxtofl@exp 0029  
                   ___xxtofl@val 0020          __end_of__initialization 002D             __end_of_display_time 153A  
                     ___fltol@f1 0062                  ??_i2c_rep_start 0072                 main@field_select 01AE  
                 __pcstackCOMMON 0070                     __pidataBANK3 1EB5                __end_of_i2c_start 1D7C  
              __end_of_i2c_write 1DA5                _i2c_wait_for_idle 1DBB               ?_i2c_wait_for_idle 0070  
                     __pbssBANK3 01E1           write_external_eeprom@i 0078                        ?_i2c_read 0070  
                      ?_i2c_stop 0070        ??_init_display_controller 0076                       _clcd_print 1FD1  
            ??_i2c_wait_for_idle 0072                       _clcd_putch 1DD8                       _clcd_write 07C8  
              __end_of__Umul8_16 1F4E                       __pmaintext 0392                  read_ds1307@addr 0076  
                read_ds1307@data 0077                     ?_write_24c02 0073                       __pintentry 0004  
                        _ACKSTAT 048E                main@password_flag 00E6                        ?___xxtofl 0020  
      __end_of_i2c_wait_for_idle 1DC8                     init_i2c@baud 0026                          _SSPCON2 0091  
                      ?_get_time 0070                       __stringtab 1800              main@log_display_316 00B1  
                     ??_i2c_read 0072                       ??_i2c_stop 0072                        ?_init_i2c 0026  
                      ?_init_adc 0070                        ?_read_adc 0072          ??_write_external_eeprom 0075  
                 main@log_select 01A7                       _read_24c02 1F77                          ___fldiv 05EB  
                        ___awdiv 13D0                          ___awmod 12AC                          ___flmul 0031  
                        ___fltol 1439                          ___lldiv 1368                  write_24c02@addr 0074  
                write_24c02@data 0073                          __ptext1 1733                          __ptext2 1E33  
                        __ptext3 1ED8                          __ptext4 1DB0                          __ptext5 1E51  
                        __ptext6 1223                          __ptext7 11C1                          __ptext8 1D85  
                        __ptext9 1DC8                 ??_check_password 0022                          _display 125C  
__end_of_init_display_controller 1368                __end_of_init_clcd 1DB0                       ??___xxtofl 0024  
              __end_of_init_uart 11F1                 ___awmod@dividend 0074                       ??_get_time 0078  
           end_of_initialization 002D                       ??_init_i2c 002A                       ??_init_adc 0072  
                     ??_read_adc 0074                      ?_clcd_print 0076                      ?_clcd_putch 0076  
                ___lldiv@divisor 0072                    ?_uart_putchar 0070                __end_of_uart_puts 1EFE  
                    ?_clcd_write 0072                  ___lldiv@counter 0025                          psplit$0 E003A  
                   __pstringtext 1000                  read_adc@channel 0075                     _display_time 14B5  
                  i2c_write@data 0072                    ___xxtofl@sign 0028                      ___fldiv@grs 0042  
                    ___fldiv@rem 003B             pnum$maintext_split_1 003A                    clcd_print@str 0076  
                    ___flmul@grs 0057                   ??_uart_putchar 0072                      ?_read_24c02 0070  
              main@temp_password 01A9              start_initialization 000F                     scan_keypad@i 0072  
         read_matrix_keypad@mode 0075           read_matrix_keypad@once 01E0                        _i2c_start 1D73  
                    __end_of_isr 1E92                        _i2c_write 1D9A            __end_of_i2c_rep_start 1D9A  
                     init_fetch0 1DE9                    ??_init_ds1307 0078                        __Umul8_16 1F25  
                    __pdataBANK3 01BE                    ??_read_ds1307 0075                    ??_init_config 007A  
                      ___fldiv@a 002E                        ___fldiv@b 0032                    ??_init_timer0 0072  
                      ___flmul@a 004C                        ___flmul@b 0048                      __pbssCOMMON 007A  
                      ___latbits 0002                    __pcstackBANK0 0020                    __pcstackBANK1 00A0  
                  __pcstackBANK3 0190          check_password@key_state 0025                       ?_i2c_start 0070  
                     ?_i2c_write 0070                   _time_count_isr 007A                    ??_scan_keypad 0072  
  __end_of_write_external_eeprom 1800                         ?___fldiv 002E                         ?___awdiv 0072  
                       ?___awmod 0072                         ?___flmul 0048                         ?___fltol 0062  
                       ?___lldiv 0072                       ?__Umul8_16 0072                        __pstrings 1800  
                       ?_display 0024              __end_of_init_ds1307 1E15             __end_of_uart_putchar 1DBB  
            read_adc@adc_reg_val 0076              __end_of_read_ds1307 1FD1                        _init_clcd 1DA5  
            __end_of_init_config 125C                        _init_uart 11C1                    ?_write_ds1307 0073  
            __end_of_init_timer0 1D8F         ?_init_display_controller 0070                interrupt_function 0004  
                   ??_clcd_print 0079                     ??_clcd_putch 0077       __end_of_init_matrix_keypad 1DD8  
                   ??_clcd_write 0073              __end_of_scan_keypad 1677                        _uart_puts 1ED8  
                main@event_count 01B5                       uart_puts@s 0073                      __stringbase 1812  
                      main@i_313 019C                        main@i_305 0194                        main@i_309 0198  
                      main@i_318 01B1                        main@i_281 0190                        main@j_310 019A  
                      main@i_288 01B0                        main@j_314 019E                        main@j_306 0196  
                      main@j_317 01A0                        main@j_282 0192                        main@count 01B4  
                    ??_i2c_start 0072               __end_of_clcd_print 2000                      ??_i2c_write 0072  
             __end_of_clcd_putch 1DE9               __end_of_clcd_write 07FE                       ?_init_clcd 0070  
                main@log_display 00A0                       ?_init_uart 0026                   ??_write_ds1307 0074  
                main@menu_select 01B9                         _i2c_read 1E92            read_matrix_keypad@key 0076  
                       _i2c_stop 1D7C                get_time@clock_reg 0079                     ??_read_24c02 0075  
                     ?_uart_puts 0073                      ??__Umul8_16 0074       __end_of_read_matrix_keypad 1F77  
                   pnum$maintext 000E                      _init_ds1307 1DFC               __end_of__stringtab 1812  
                    _read_ds1307 1FA4                      _init_config 1223                         ___xxtofl 1677  
                    _init_timer0 1D85               __end_of_read_24c02 1FA4                         __ptext10 11F1  
                       __ptext11 1368                         __ptext20 125C                         __ptext12 1DFC  
                       __ptext21 12AC                         __ptext13 1E15                         __ptext30 1D73  
                       __ptext22 13D0                         __ptext14 1DA5                         __ptext31 1E92  
                       __ptext23 153A                         __ptext15 1305                         __ptext40 05EB  
                       __ptext32 1DBB                         __ptext24 1F4E                         __ptext16 1D6C  
                       __ptext41 1E70                         __ptext33 1DD8                         __ptext25 15CB  
                       __ptext17 1EFE                         __ptext34 1FD1                         __ptext26 1F77  
                       __ptext18 1FA4                         __ptext35 07C8                         __ptext27 1D9A  
                       __ptext19 14B5                         __ptext36 1677                         __ptext28 1D8F  
                       __ptext37 1439                         __ptext29 1D7C                         __ptext38 0031  
                       __ptext39 1F25                         _get_time 1EFE         main@time_count_decrement 01A5  
   main@time_count_increment_293 01A1                         _init_i2c 11F1                         _init_adc 1D6C  
                       _read_adc 1E51                      _scan_keypad 15CB            display_time@clock_reg 0079  
                       main@F922 01BE                         main@F919 01D2                    ??_write_24c02 0074  
                       main@addr 00C4                         main@gear 00D8                         display@i 0026  
       main@time_count_increment 01A3                         init_ram0 1DED                      ??_init_clcd 0078  
                    ??_init_uart 002A                         intlevel1 0000                 uart_putchar@data 0072  
                  init_uart@baud 0026                 ___lldiv@dividend 0076                        stringcode 180A  
                   _uart_putchar 1DB0                      ??_uart_puts 0075             __end_of_write_ds1307 1E33  
         __Umul8_16@multiplicand 0072              __end_of_write_24c02 1E51                 ___lldiv@quotient 0021  
                       stringtab 1800   write_external_eeprom@event_idx 0020              check_password@count 0027  
               write_ds1307@addr 0074                 write_ds1307@data 0073             __Umul8_16@multiplier 0024  
              __Umul8_16@product 0020  
